0001   0000             ;============================================================================
0002   0000             ; PE1OBW/PE1PCF NICAM software
0003   0000             ; 
0004   0000             ; Date 	970607 JWD initial version for prototype
0005   0000             ;     	980131 JWD serial upload to DSP added
0006   0000             ;      	980208 JWD New version for 9801 board
0007   0000             ;       980704 JWD experiment AD communications
0008   0000             ;	980715 JWD pullups on extra defined pins
0009   0000             ;	981010 JWD menu added, set_ functions added and much more..
0010   0000             ;	990605 JWD autodetect for display added
0011   0000             ;	000102 JWD 1khz beep added, version nr increased
0012   0000             ;	011110 JWD scrambling
0013   0000             ;============================================================================
0014   0000             
0015   0000             #include "8032_reg.h"
0001+  0000             ;-------[ 8032_REG.H ]------------------------------------------
0002+  0000             ;  8032/8052 registers.
0003+  0000             ;  Geschreven door Werner, Willem, Gerbert, Bert en dergelijke.
0004+  0000             ;
0005+  0000             ;	Update 980607 JWD
0006+  0000             ;---------------------------------------------------------------
0007+  0000             
0008+  0000             RCAP2L  .EQU    0CAH
0009+  0000             RCAP2H  .EQU    0CBH
0010+  0000             TL2     .EQU    0CCH
0011+  0000             TH2     .EQU    0CDH    ;timer 2 tellers
0012+  0000             
0013+  0000             SP      .EQU    081H    ;Stack pointer
0014+  0000             DPL     .EQU    082H
0015+  0000             DPH     .EQU    083H
0016+  0000             PCON    .EQU    087H
0017+  0000             TMOD    .EQU    089H
0018+  0000             TL0     .EQU    08AH
0019+  0000             TL1     .EQU    08BH
0020+  0000             TH0     .EQU    08CH
0021+  0000             TH1     .EQU    08DH
0022+  0000             SBUF    .EQU    099H
0023+  0000             R2      .EQU    002H
0024+  0000             R4      .EQU    004H
0025+  0000             
0026+  0000             SCON    .EQU    098H	
0027+  0000             SCON.0	.EQU	098H
0028+  0000             SCON.1	.EQU	099H
0029+  0000             SCON.2	.EQU	09AH
0030+  0000             SCON.3	.EQU	09BH
0031+  0000             SCON.4	.EQU	09CH
0032+  0000             SCON.5	.EQU	09DH
0033+  0000             SCON.6	.EQU	09EH
0034+  0000             SCON.7	.EQU	09FH
0035+  0000             
0036+  0000             RI	.EQU	098H
0037+  0000             TI	.EQU	099H
0038+  0000             RB8	.EQU	09AH
0039+  0000             TB8	.EQU	09BH
0040+  0000             REN	.EQU	09CH
0041+  0000             SM2	.EQU	09DH
0042+  0000             SM1	.EQU	09EH
0043+  0000             SM0	.EQU	09FH
0044+  0000             
0045+  0000             BCC     .EQU    0F0H
0046+  0000             BCC.0   .EQU    0F0H
0047+  0000             BCC.1   .EQU    0F1H
0048+  0000             BCC.2   .EQU    0F2H
0049+  0000             BCC.3   .EQU    0F3H
0050+  0000             BCC.4   .EQU    0F4H
0051+  0000             BCC.5   .EQU    0F5H
0052+  0000             BCC.6   .EQU    0F6H
0053+  0000             BCC.7   .EQU    0F7H
0054+  0000             B       .EQU    0F0H    ;Secondary Accumulator
0055+  0000             B.0     .EQU    0F0H
0056+  0000             B.1     .EQU    0F1H
0057+  0000             B.2     .EQU    0F2H
0058+  0000             B.3     .EQU    0F3H
0059+  0000             B.4     .EQU    0F4H
0060+  0000             B.5     .EQU    0F5H
0061+  0000             B.6     .EQU    0F6H
0062+  0000             B.7     .EQU    0F7H
0063+  0000             
0064+  0000             PSW     .EQU    0D0H
0065+  0000             PSW.0   .EQU    0D0H
0066+  0000             PSW.1   .EQU    0D1H
0067+  0000             PSW.2   .EQU    0D2H
0068+  0000             PSW.3   .EQU    0D3H
0069+  0000             PSW.4   .EQU    0D4H
0070+  0000             PSW.5   .EQU    0D5H
0071+  0000             PSW.6   .EQU    0D6H
0072+  0000             PSW.7   .EQU    0D7H
0073+  0000             
0074+  0000             IEC     .EQU    0A8H
0075+  0000             IEC.0   .EQU    0A8H    ;int0
0076+  0000             IEC.1   .EQU    0A9H    ;timer0
0077+  0000             IEC.2   .EQU    0AAH    ;int1
0078+  0000             IEC.3   .EQU    0ABH    ;timer1
0079+  0000             IEC.4   .EQU    0ACH    ;serieele poort
0080+  0000             IEC.5   .EQU    0ADH    ;timer2
0081+  0000             IEC.6   .EQU    0AEH
0082+  0000             IEC.7   .EQU    0AFH
0083+  0000             
0084+  0000             EX0	.EQU	0A8h
0085+  0000             ET0	.EQU	0A9h
0086+  0000             EX1	.EQU	0AAh
0087+  0000             ET1	.EQU	0ABh
0088+  0000             ES	.EQU	0ACh
0089+  0000             ET2	.EQU	0ADh
0090+  0000             EA	.EQU	0AFh		
0091+  0000             
0092+  0000             IPC     .EQU    0B8H
0093+  0000             IPC.0   .EQU    0B8H
0094+  0000             IPC.1   .EQU    0B9H
0095+  0000             IPC.2   .EQU    0BAH
0096+  0000             IPC.3   .EQU    0BBH
0097+  0000             IPC.4   .EQU    0BCH
0098+  0000             IPC.5   .EQU    0BDH
0099+  0000             IPC.6   .EQU    0BEH
0100+  0000             IPC.7   .EQU    0BFH
0101+  0000             PX0	.EQU	0B8h
0102+  0000             PT0	.EQU	0B9h
0103+  0000             PX1	.EQU	0BAh
0104+  0000             PT1	.EQU	0BBh
0105+  0000             PS	.EQU	0BCh
0106+  0000             PT2	.EQU	0BDh
0107+  0000             
0108+  0000             
0109+  0000             TCON    .EQU    088H
0110+  0000             TCON.0  .EQU    088H
0111+  0000             TCON.1  .EQU    089H
0112+  0000             TCON.2  .EQU    08AH
0113+  0000             TCON.3  .EQU    08BH
0114+  0000             TCON.4  .EQU    08CH
0115+  0000             TCON.5  .EQU    08DH
0116+  0000             TCON.6  .EQU    08EH
0117+  0000             TCON.7  .EQU    08FH
0118+  0000             
0119+  0000             IT0	.EQU	088h
0120+  0000             IE0	.EQU	089h
0121+  0000             IT1	.EQU	08Ah
0122+  0000             IE1	.EQU	08Bh
0123+  0000             TR0	.EQU	08Ch
0124+  0000             TF0	.EQU	08Dh
0125+  0000             TR1	.EQU	08Eh
0126+  0000             TF1	.EQU	08Fh
0127+  0000             
0128+  0000             T2CON   .EQU    0C8H    ;timer 2 control
0129+  0000             T2CON.0 .EQU    0C8H
0130+  0000             T2CON.1 .EQU    0C9H
0131+  0000             T2CON.2 .EQU    0CAH
0132+  0000             T2CON.3 .EQU    0CBH
0133+  0000             T2CON.4 .EQU    0CCH
0134+  0000             T2CON.5 .EQU    0CDH
0135+  0000             T2CON.6 .EQU    0CEH
0136+  0000             T2CON.7 .EQU    0CFH
0137+  0000             
0138+  0000             P0      .EQU    080H    ;Port 0
0139+  0000             P0.0	.EQU	080H
0140+  0000             P0.1	.EQU	081H
0141+  0000             P0.2	.EQU	082H
0142+  0000             P0.3	.EQU	083H
0143+  0000             P0.4	.EQU	084H
0144+  0000             P0.5	.EQU	085H
0145+  0000             P0.6	.EQU	086H
0146+  0000             P0.7	.EQU	087H
0147+  0000             
0148+  0000             P1      .EQU    090H
0149+  0000             P1.0    .EQU    090H
0150+  0000             P1.1    .EQU    091H
0151+  0000             P1.2    .EQU    092H
0152+  0000             P1.3    .EQU    093H
0153+  0000             P1.4    .EQU    094H
0154+  0000             P1.5    .EQU    095H
0155+  0000             P1.6    .EQU    096H
0156+  0000             P1.7    .EQU    097H
0157+  0000             	   
0158+  0000             P2      .EQU    0A0H
0159+  0000             P2.0    .EQU    0A0H
0160+  0000             P2.1    .EQU    0A1H
0161+  0000             P2.2    .EQU    0A2H
0162+  0000             P2.3    .EQU    0A3H
0163+  0000             P2.4    .EQU    0A4H
0164+  0000             P2.5    .EQU    0A5H
0165+  0000             P2.6    .EQU    0A6H
0166+  0000             P2.7    .EQU    0A7H
0167+  0000             
0168+  0000             P3      .EQU    0B0H
0169+  0000             P3.0    .EQU    0B0H
0170+  0000             P3.1    .EQU    0B1H
0171+  0000             P3.2    .EQU    0B2H
0172+  0000             P3.3    .EQU    0B3H
0173+  0000             P3.4    .EQU    0B4H
0174+  0000             P3.5    .EQU    0B5H
0175+  0000             P3.6    .EQU    0B6H
0176+  0000             P3.7    .EQU    0B7H
0177+  0000             
0178+  0000             ACC     .EQU    0E0H
0179+  0000             ACC.0   .EQU    0E0H
0180+  0000             ACC.1   .EQU    0E1H
0181+  0000             ACC.2   .EQU    0E2H
0182+  0000             ACC.3   .EQU    0E3H
0183+  0000             ACC.4   .EQU    0E4H
0184+  0000             ACC.5   .EQU    0E5H
0185+  0000             ACC.6   .EQU    0E6H
0186+  0000             ACC.7   .EQU    0E7H
0187+  0000             
0188+  0000                
0016   0000             
0017   0000             ;#define         TWOROW_DISPLAY          1
0018   0000             
0019   0000             ;=============== SYSTEM DEFINES =============================================
0020   0000             
0021   0000             STSWORD         .EQU    00001000b   	;dsp init - reset and download
0022   0000             INTWORD         .EQU    01000000b   	;dsp init - B0,1 program, no ints enabled
0023   0000             
0024   0000             BAUD4K8         .EQU    256-12          ;4800 bd with 11.0592 MHz XTAL
0025   0000             BAUD9K6    	.EQU	256-6      	;9600 bd with 11.0592 MHz XTAL
0026   0000             BAUD19K2	.EQU	256-3		;19K2 with 11.0592 MHz XTAL
0027   0000             BAUD57K6	.EQU	256-1		;57K6 with 11.0592 MHz XTAL
0028   0000             
0029   0000             ;=============== HARDWARE PINS ==============================================
0030   0000             
0031   0000             ;---- 8032 pins ------------
0032   0000             LCA_nRES        .EQU    P1.0		; LCA reset pin (active low)
0033   0000             LCA_DONE        .EQU    P1.1		; LCA done/prog pin (done=1,prog=0)
0034   0000             DSP_nRES        .EQU    P1.2		; DSP reset pin (active low)
0035   0000             TX_SEL          .EQU    P1.3		; TX output select 0=RS232, 1=DSP
0036   0000             nKEY3		.EQU	P1.4		; Front panel keys
0037   0000             nKEY2		.EQU	P1.5
0038   0000             nKEY1		.EQU	P1.6
0039   0000             LED		.EQU	P1.7		; Front panel LED
0040   0000             SER_IN		.EQU	P3.0		; RXD
0041   0000             SER_OUT         .EQU    P3.1            ; TXD, to RS232 or to DSP
0042   0000             DSP_STAT	.EQU	P3.2		; DSP XF output
0043   0000             LCA_IRQ		.EQU	P3.3		; LCA interrupt
0044   0000             
0045   0000             #define	SDA		P3.4		; I2C bus
0046   0000             #define	SCL		P3.5
0047   0000             
0048   0000             
0049   0000             ;---- LCA registers -----
0050   0000             #define	LCA_CONF	0000h		; Bit 0 = configuration data
0051   0000             #define LCA_CBITS       0001h           ; Bit 0..3 = C1..C4
0052   0000             #define LCA_ADBITS0     0002h           ; Bit 0..3 = AD0..AD3
0053   0000             #define LCA_ADBITS1     0003h           ; Bit 0..3 = AD4..AD7
0054   0000             #define LCA_ADBITS2     0004h           ; Bit 0..2 = AD8..AD10, write clears tx_int_flag
0055   0000             #define LCA_CONF1       0000h           ; Bit 1,0
0056   0000                                                     ;     0 1 = analog input selected
0057   0000                                                     ;     1 0 = digital input enable
0058   0000                                                     ; Bit 3,2
0059   0000             					;     0 0  5.85 MHz selected
0060   0000             					;     0 1  6.552 MHz selected
0061   0000             					;     1 0  1.4 MHz selected
0062   0000             #define LCA_SCR0        0005h           ; Bit 0..3 = scrambler init word 0..3
0063   0000             #define LCA_SCR1        0006h           ; Bit 0..3 = scrambler init word 4..7
0064   0000             #define LCA_SCR2        0007h           ; Bit 0 = scrambler init word 8
0065   0000             
0066   0000             #define	LCA_IN0		0000h		; Bit 0..3 AD0..3
0067   0000             #define	LCA_IN1		0001h		; Bit 0..3 AD4..7
0068   0000             #define	LCA_IN2		0002h		; Bit 0..3 AD8..10, rx_interrupt_flag
0069   0000             #define	LCA_IN3		0003h		; Bit 0    tx_interrupt_flag
0070   0000             
0071   0000             #define	IN_ANALOG	01h		; CONF1 register bit patterns
0072   0000             #define	IN_SPDIF	02h
0073   0000             #define	OUT_5850	00h
0074   0000             #define	OUT_6552	04h
0075   0000             #define	OUT_1462	08h
0076   0000             
0077   0000             ;=============== internal RAM =================================================
0078   0000             
0079   0000             TX_ENA		.EQU	000h		; bit flag to indicate TX active
0080   0000             TO_FLAG		.EQU	001h		; timeout flag
0081   0000             TO_FLAG2	.EQU	002h		; timeout flag2
0082   0000             
0083   0000             ; Block 060-07F is for FIFO buffers !!
0084   0000             SO_WP		.EQU	05FH
0085   0000             SO_RP		.EQU	05EH
0086   0000             SI_WP		.EQU	05DH
0087   0000             SI_RP		.EQU	05CH		; serial
0088   0000             
0089   0000             CSL		.EQU	05BH
0090   0000             CSH		.EQU	05AH
0091   0000             STOREL		.EQU	059H
0092   0000             STOREH		.EQU	058H
0093   0000             AD_LO           .EQU    057H
0094   0000             AD_HI           .EQU    056H
0095   0000             ADCNTLO		.EQU	052H
0096   0000             ADCNTHI		.EQU	051H
0097   0000             
0098   0000             ;----- Settings, also stored in EEPROM (in this order) -----
0099   0000             #DEFINE		NR_EEP_ITEMS	9	; nr of memory locations from 8 to store...
0100   0000             OUTPUT		.EQU	008H
0101   0000             INPUT		.EQU	009H
0102   0000             INPUT_LVL	.EQU	00AH
0103   0000             PREEMP		.EQU	00BH
0104   0000             C4BIT		.EQU	00CH
0105   0000             NICMODE		.EQU	00DH
0106   0000             NICTEST		.EQU	00EH
0107   0000             SCRAMBLE        .EQU    00FH
0108   0000             LAST_NR		.EQU	010H		; last used menu item number
0109   0000             
0110   0000             
0111   0000             TO_CNTLO	.EQU	01CH
0112   0000             TO_CNTHI	.EQU	01DH
0113   0000             SLOW_TIM	.EQU	01EH		; timeout counter
0114   0000             MENU_NR		.EQU	01FH		; menu item number (0=none)
0115   0000             
0116   0000             		.ORG    0000h
0117   0000 02 00 2C    		LJMP    START
0118   0003             
0119   0003             		.ORG    0003H
0120   0003 32                          RETI                    ;int 0 (DSP interrupt)
0121   0004             
0122   000B             		.ORG    000BH
0123   000B 02 03 A2                    LJMP	TIM_IRQ         ;timer 0 (timer 0)
0124   000E             
0125   0013             		.ORG    0013H
0126   0013 02 03 6A                    LJMP    LCAINT		;int 1 (lca interrupt)
0127   0016             
0128   001B             		.ORG    001BH
0129   001B 32          		RETI                    ;timer 1
0130   001C             
0131   0023             		.ORG    0023H
0132   0023 02 04 1C    		LJMP	SER_INT         ;serial
0133   0026             
0134   002B             		.ORG    002BH
0135   002B 32          		RETI                    ;timer 2
0136   002C             
0137   002C             
0138   002C             ;==================================================================
0139   002C             ; Start of program.
0140   002C             ;
0141   002C             ; Initialize hardware first.
0142   002C             ;=================================================================
0143   002C             START:        
0144   002C C2 97       		CLR	LED
0145   002E 75 D0 00    		MOV     PSW, #0
0146   0031 75 81 21    		MOV     SP, #021h		; behind bit space
0147   0034 12 02 6A    		LCALL   LCA_INIT 	      	; FIRST OF ALL initialize FPGA ! Do not perform
0148   0037             						; any display operation before LCA is initialized!
0149   0037 12 04 B9    		LCALL	DISPINIT		; initialize LCD
0150   003A 90 03 E2    		MOV	DPTR, #boot_txt
0151   003D E4          		CLR	A
0152   003E 12 07 48    		LCALL	MTXT			; show boot-text
0153   0041 75 1F 00    		MOV	MENU_NR, #0		; 
0154   0044 75 10 01    		MOV	LAST_NR, #1
0155   0047 12 01 F9                    LCALL   CONFIGURE      		; Configure LCA registers
0156   004A             
0157   004A 75 1D 00    		MOV	TO_CNTHI, #0
0158   004D 75 1E 00    		MOV	SLOW_TIM, #0
0159   0050 C2 02       		CLR	TO_FLAG2
0160   0052 C2 01       		CLR	TO_FLAG			; clear timeout counters and flags
0161   0054 12 02 5D    		LCALL	SET_TIMER		; start timer
0162   0057             
0163   0057 78 00       		MOV	R0, #0
0164   0059 12 06 39    		LCALL	SHOW_MENU		; show initial text
0165   005C C2 93       		CLR	TX_SEL			; select RS232 output
0166   005E 12 03 F3    		LCALL	INITSERIAL		; initialize com port
0167   0061             
0168   0061 12 03 62    		LCALL	COM_INIT
0169   0064 75 57 00                    MOV     AD_LO, #0
0170   0067 C2 97       		CLR	LED
0171   0069             
0172   0069             		;check for display presence
0173   0069 12 05 1D    		LCALL	DISPCHECK
0174   006C 40 3C       		JC	loop			; if display found (c=1) jump
0175   006E             
0176   006E             ;==================================================================
0177   006E             ; Main program loop if display/keys are not connected
0178   006E             ;=================================================================
0179   006E             
0180   006E             loop2:   	;check switch 1 (5.85/6.552)
0181   006E E5 08       		MOV	A, OUTPUT
0182   0070 20 96 05    		JB	nKEY1, op585		; check pin. If high, set to 585.
0183   0073 B4 01 14    		CJNE	A, #1, do6552		; check if already on 6.552. if not, set so
0184   0076 80 03       		SJMP	chkinp
0185   0078 B4 00 17    op585:		CJNE	A, #0, do585		; check if already on 5.85. if not, set so
0186   007B             
0187   007B E5 09       chkinp:		MOV	A, INPUT
0188   007D 20 95 05    		JB	nKEY2, opan		; check pin. If high, set analog
0189   0080 B4 01 17    		CJNE	A, #1, dodig
0190   0083 80 E9       		SJMP	loop2
0191   0085 B4 00 1A    opan:		CJNE	A, #0, doan
0192   0088 80 E4       		SJMP	loop2
0193   008A             
0194   008A 75 08 01    do6552:		MOV	OUTPUT, #1		; set output to 6.552
0195   008D 12 00 AF    		LCALL	SET_IN_OUTPUT		; set new output
0196   0090 80 DC       		SJMP	loop2
0197   0092 75 08 00    do585:		MOV	OUTPUT, #0		; set output to 5.85
0198   0095 12 00 AF    		LCALL	SET_IN_OUTPUT		; set new output
0199   0098 80 D4       		SJMP	loop2
0200   009A 75 09 01    dodig:		MOV	INPUT, #1		; set input digital
0201   009D 12 00 AF    		LCALL	SET_IN_OUTPUT		; set new input
0202   00A0 80 CC       		SJMP	loop2
0203   00A2 75 09 00    doan:		MOV	INPUT, #0		; set input analog
0204   00A5 12 00 AF    		LCALL	SET_IN_OUTPUT		; set new input
0205   00A8 80 C4       		SJMP	loop2
0206   00AA             
0207   00AA             
0208   00AA             ;==================================================================
0209   00AA             ; Main program loop if display/keys are connected
0210   00AA             ;=================================================================
0211   00AA             
0212   00AA 12 05 D6    loop:   	LCALL	KEY_TASK		; handle key-presses
0213   00AD 80 FB       		SJMP	loop
0214   00AF             
0215   00AF             
0216   00AF             
0217   00AF             
0218   00AF             ;------------------------------------------------------------------
0219   00AF             ; SET_IN_OUTPUT
0220   00AF             ; 
0221   00AF             ; Set Nicam input/output mode. 
0222   00AF             ; INPUT = 0 or 1 for analog or digital.
0223   00AF             ; OUTPUT = 0,1 or 2 for 5.85, 6.552 or 1.44 MHz.
0224   00AF             ;------------------------------------------------------------------
0225   00AF             
0226   00AF             SET_IN_OUTPUT:
0227   00AF 53 08 03    		ANL	OUTPUT, #3
0228   00B2 53 09 01    		ANL	INPUT, #1
0229   00B5 E5 08       	       	MOV	A, OUTPUT
0230   00B7 23          		RL	A
0231   00B8 23          		RL	A
0232   00B9 24 01       		ADD	A, #1
0233   00BB 25 09       		ADD	A, INPUT		; calculate new config nibble
0234   00BD 90 00 00    	        MOV     DPTR, #LCA_CONF1        ; write to configuration register
0235   00C0 F0          		MOVX	@DPTR, A
0236   00C1 22          		RET
0237   00C2             
0238   00C2             
0239   00C2             ;------------------------------------------------------------------
0240   00C2             ; SET_SCRAMBLE:
0241   00C2             ;
0242   00C2             ; If scramble = 0, the scramble init word is set to 1ff (normal).
0243   00C2             ; If scramble = 1, the scramble init word is set to 000 (off).
0244   00C2             ; If scramble = 2, the scramble init word is set to 1b3 (secret).
0245   00C2             ; LCA registers...
0246   00C2             ;------------------------------------------------------------------
0247   00C2             
0248   00C2             SET_SCRAMBLE:		
0249   00C2 E5 0F                       MOV     A, SCRAMBLE
0250   00C4 70 0F                       JNZ     scramble
0251   00C6             
0252   00C6 74 FF       noscramble:     MOV     A, #0FFh
0253   00C8 90 00 05                    MOV     DPTR, #LCA_SCR0
0254   00CB F0                          MOVX    @DPTR, A
0255   00CC 90 00 06                    MOV     DPTR, #LCA_SCR1
0256   00CF F0                          MOVX    @DPTR, A
0257   00D0 90 00 07                    MOV     DPTR, #LCA_SCR2
0258   00D3 F0                          MOVX    @DPTR, A		; init word = 1FF
0259   00D4 22                          RET
0260   00D5             
0261   00D5 B4 01 13    scramble:       CJNE	A, #1, scramble2
0262   00D8 74 00       		MOV     A, #00h
0263   00DA 90 00 05                    MOV     DPTR, #LCA_SCR0
0264   00DD F0                          MOVX    @DPTR, A
0265   00DE 74 00                       MOV     A, #00h
0266   00E0 90 00 06                    MOV     DPTR, #LCA_SCR1
0267   00E3 F0                          MOVX    @DPTR, A
0268   00E4 74 00                       MOV     A, #00h
0269   00E6 90 00 07                    MOV     DPTR, #LCA_SCR2         ; init word = 000h (off)
0270   00E9 F0                          MOVX    @DPTR, A
0271   00EA 22                          RET
0272   00EB             
0273   00EB 74 0B       scramble2:	MOV     A, #0bh
0274   00ED 90 00 05                    MOV     DPTR, #LCA_SCR0
0275   00F0 F0                          MOVX    @DPTR, A
0276   00F1 74 09                       MOV     A, #09h
0277   00F3 90 00 06                    MOV     DPTR, #LCA_SCR1
0278   00F6 F0                          MOVX    @DPTR, A
0279   00F7 74 01                       MOV     A, #01h
0280   00F9 90 00 07                    MOV     DPTR, #LCA_SCR2         ; init word = 19bh (dec=1b3)
0281   00FC F0                          MOVX    @DPTR, A
0282   00FD 22                          RET
0283   00FE             
0284   00FE             
0285   00FE             ;------------------------------------------------------------------
0286   00FE             ; SET_CBITS
0287   00FE             ;
0288   00FE             ; NICMODE can be 0-2 for stereo, dual mono and mono
0289   00FE             ; C4BIT can be 0 or 1 for off or on
0290   00FE             ;------------------------------------------------------------------
0291   00FE             
0292   00FE 53 0C 01    SET_CBITS:      ANL	C4BIT, #1
0293   0101 53 0D 03    		ANL	NICMODE, #3
0294   0104 E5 0C       	        MOV     A, C4BIT
0295   0106 C4          		SWAP	A
0296   0107 03          		RR	A
0297   0108 25 0D       		ADD	A, NICMODE
0298   010A 90 00 01    	        MOV     DPTR, #LCA_CBITS
0299   010D F0          	        MOVX    @DPTR, A
0300   010E 22          		RET
0301   010F             
0302   010F             ;------------------------------------------------------------------
0303   010F             ; SET_DSP
0304   010F             ;
0305   010F             ; Configure the DSP with the config file depending on 
0306   010F             ; INPUT_LVL (0-3), PREEMP (0/1) and NICMODE (0)
0307   010F             ;------------------------------------------------------------------
0308   010F             
0309   010F 53 0A 03    SET_DSP:	ANL	INPUT_LVL, #3
0310   0112 53 0B 01    		ANL	PREEMP, #1
0311   0115 53 0D 03    		ANL	NICMODE, #3
0312   0118             
0313   0118 E5 0E       		MOV	A, NICTEST
0314   011A 60 51       		JZ	not_test
0315   011C             		;--- test function ---
0316   011C B4 01 19    		CJNE	A,#1,not_left
0317   011F             		;beep on left channel
0318   011F 90 02 58    		MOV	DPTR, #(BEEPLEFTEND - BEEPLEFT - 2)/2
0319   0122 AA 82       		MOV	R2, DPL
0320   0124 AB 83       		MOV	R3, DPH
0321   0126 90 02 59    		MOV	DPTR, #(BEEPLEFTEND - BEEPLEFT)/2
0322   0129 AC 82       		MOV	R4, DPL
0323   012B AD 83       		MOV	R5, DPH
0324   012D 90 39 FB    		MOV	DPTR, #BEEPLEFT
0325   0130 AE 82       		MOV	R6, DPL
0326   0132 AF 83       		MOV	R7, DPH
0327   0134 12 02 A5    		LCALL	DSP_INIT		
0328   0137 22          		RET
0329   0138             
0330   0138 B4 02 19    not_left:	CJNE	A,#2,not_right
0331   013B             		;beep on right channel
0332   013B 90 02 58    		MOV	DPTR, #(BEEPRGHTEND - BEEPRGHT - 2)/2
0333   013E AA 82       		MOV	R2, DPL
0334   0140 AB 83       		MOV	R3, DPH
0335   0142 90 02 59    		MOV	DPTR, #(BEEPRGHTEND - BEEPRGHT)/2
0336   0145 AC 82       		MOV	R4, DPL
0337   0147 AD 83       		MOV	R5, DPH
0338   0149 90 3E AE    		MOV	DPTR, #BEEPRGHT
0339   014C AE 82       		MOV	R6, DPL
0340   014E AF 83       		MOV	R7, DPH
0341   0150 12 02 A5    		LCALL	DSP_INIT		
0342   0153 22          		RET
0343   0154             
0344   0154             not_right:	;---- beep on both channels
0345   0154 90 02 58    		MOV	DPTR, #(BEEPBOTHEND - BEEPBOTH - 2)/2
0346   0157 AA 82       		MOV	R2, DPL
0347   0159 AB 83       		MOV	R3, DPH
0348   015B 90 02 59    		MOV	DPTR, #(BEEPBOTHEND - BEEPBOTH)/2
0349   015E AC 82       		MOV	R4, DPL
0350   0160 AD 83       		MOV	R5, DPH
0351   0162 90 35 48    		MOV	DPTR, #BEEPBOTH
0352   0165 AE 82       		MOV	R6, DPL
0353   0167 AF 83       		MOV	R7, DPH
0354   0169 12 02 A5    		LCALL	DSP_INIT		
0355   016C 22          		RET
0356   016D             
0357   016D             not_test:
0358   016D E5 0B       		MOV	A, PREEMP
0359   016F 70 19       		JNZ	not_nopr
0360   0171             		;--- no preemphasis ---
0361   0171 90 03 14    		MOV	DPTR, #(DSP_NOPREND - DSP_NOPR - 2)/2
0362   0174 AA 82       		MOV	R2, DPL
0363   0176 AB 83       		MOV	R3, DPH
0364   0178 90 03 15    		MOV	DPTR, #(DSP_NOPREND - DSP_NOPR)/2
0365   017B AC 82       		MOV	R4, DPL
0366   017D AD 83       		MOV	R5, DPH
0367   017F 90 2F 1D    		MOV	DPTR, #DSP_NOPR
0368   0182 AE 82       		MOV	R6, DPL
0369   0184 AF 83       		MOV	R7, DPH
0370   0186 12 02 A5    		LCALL	DSP_INIT		
0371   0189 22          		RET
0372   018A             
0373   018A E5 0A       not_nopr:	MOV	A, INPUT_LVL
0374   018C B4 03 19    		CJNE	A, #3, not12db
0375   018F             		;--- SET DSP for +12 dB gain
0376   018F 90 03 44    		MOV	DPTR, #(DSP_12DBEND - DSP_12DB - 2)/2
0377   0192 AA 82       		MOV	R2, DPL
0378   0194 AB 83       		MOV	R3, DPH
0379   0196 90 03 45    		MOV	DPTR, #(DSP_12DBEND - DSP_12DB)/2
0380   0199 AC 82       		MOV	R4, DPL
0381   019B AD 83       		MOV	R5, DPH
0382   019D 90 28 92    		MOV	DPTR, #DSP_12DB
0383   01A0 AE 82       		MOV	R6, DPL
0384   01A2 AF 83       		MOV	R7, DPH
0385   01A4 12 02 A5    		LCALL	DSP_INIT		
0386   01A7 22          		RET
0387   01A8             
0388   01A8 B4 02 19    not12db:	CJNE	A, #2, not6db
0389   01AB             		;--- SET DSP for +6 dB gain
0390   01AB 90 03 44    		MOV	DPTR, #(DSP_6DBEND - DSP_6DB - 2)/2
0391   01AE AA 82       		MOV	R2, DPL
0392   01B0 AB 83       		MOV	R3, DPH
0393   01B2 90 03 45    		MOV	DPTR, #(DSP_6DBEND - DSP_6DB)/2
0394   01B5 AC 82       		MOV	R4, DPL
0395   01B7 AD 83       		MOV	R5, DPH
0396   01B9 90 22 07    		MOV	DPTR, #DSP_6DB
0397   01BC AE 82       		MOV	R6, DPL
0398   01BE AF 83       		MOV	R7, DPH
0399   01C0 12 02 A5    		LCALL	DSP_INIT		
0400   01C3 22          		RET
0401   01C4             
0402   01C4 B4 01 19    not6db:		CJNE	A, #1, not0db
0403   01C7             		;--- SET DSP for 0 dB gain
0404   01C7 90 03 44    		MOV	DPTR, #(DSP_0DBEND - DSP_0DB - 2)/2
0405   01CA AA 82       		MOV	R2, DPL
0406   01CC AB 83       		MOV	R3, DPH
0407   01CE 90 03 45    		MOV	DPTR, #(DSP_0DBEND - DSP_0DB)/2
0408   01D1 AC 82       		MOV	R4, DPL
0409   01D3 AD 83       		MOV	R5, DPH
0410   01D5 90 1B 7C    		MOV	DPTR, #DSP_0DB
0411   01D8 AE 82       		MOV	R6, DPL
0412   01DA AF 83       		MOV	R7, DPH
0413   01DC 12 02 A5    		LCALL	DSP_INIT		
0414   01DF 22          		RET
0415   01E0             
0416   01E0             not0db:		;--- SET DSP for -6 dB gain
0417   01E0 90 03 44    		MOV	DPTR, #(DSP_M6DBEND - DSP_M6DB - 2)/2
0418   01E3 AA 82       		MOV	R2, DPL
0419   01E5 AB 83       		MOV	R3, DPH
0420   01E7 90 03 45    		MOV	DPTR, #(DSP_M6DBEND - DSP_M6DB)/2
0421   01EA AC 82       		MOV	R4, DPL
0422   01EC AD 83       		MOV	R5, DPH
0423   01EE 90 14 F1    		MOV	DPTR, #DSP_M6DB
0424   01F1 AE 82       		MOV	R6, DPL
0425   01F3 AF 83       		MOV	R7, DPH
0426   01F5 12 02 A5    		LCALL	DSP_INIT		
0427   01F8 22          		RET
0428   01F9             
0429   01F9             
0430   01F9             
0431   01F9             ;--------------------------------------------------------------------
0432   01F9             ; CONFIGURE
0433   01F9             ;       Configure Nicam coder by reading values from EEPROM.
0434   01F9             ;	If eeprom data is not available, set defaults to
0435   01F9             ;       analog in, AD/C bits to 0, no scrambling
0436   01F9             ;--------------------------------------------------------------------
0437   01F9             
0438   01F9             CONFIGURE:
0439   01F9 75 F0 00    		MOV	B, #0
0440   01FC 12 09 AA    		LCALL	READEEPROM
0441   01FF 12 09 AA    		LCALL	READEEPROM
0442   0202 B4 7C 0F    		CJNE	A, #124, set_defaults		; Check if signature is present
0443   0205 7F 09       		MOV	R7, #NR_EEP_ITEMS
0444   0207 78 08       		MOV	R0, #8
0445   0209 05 F0       eerd_loop:	INC	B				; Copy location 1-8 from EEPROM to
0446   020B 12 09 AA    		LCALL	READEEPROM			; location 8-15 in internal RAM
0447   020E F6          		MOV	@R0, A
0448   020F 08          		INC	R0
0449   0210 DF F7       		DJNZ	R7, eerd_loop
0450   0212 80 18       		SJMP	set_hw
0451   0214             set_defaults:
0452   0214 75 09 00    		MOV	INPUT, #0
0453   0217 75 08 01    		MOV	OUTPUT, #1
0454   021A 75 0F 00                    MOV     SCRAMBLE, #0
0455   021D 75 0A 01    		MOV	INPUT_LVL, #1
0456   0220 75 0B 01    		MOV	PREEMP, #1
0457   0223 75 0C 00    		MOV	C4BIT, #0
0458   0226 75 0D 00    		MOV	NICMODE, #0
0459   0229 75 0E 00    		MOV	NICTEST, #0
0460   022C             set_hw:
0461   022C 12 01 0F    		LCALL	SET_DSP
0462   022F 12 00 AF    		LCALL	SET_IN_OUTPUT
0463   0232 12 00 C2    		LCALL	SET_SCRAMBLE
0464   0235 12 00 FE    		LCALL	SET_CBITS
0465   0238             
0466   0238             		; Set additional data
0467   0238 74 00       		MOV	A, #0
0468   023A 90 00 02    	        MOV     DPTR, #LCA_ADBITS0
0469   023D F0          	        MOVX    @DPTR, A
0470   023E 90 00 03    	        MOV     DPTR, #LCA_ADBITS1
0471   0241 F0          	        MOVX    @DPTR, A
0472   0242 90 00 04    	        MOV     DPTR, #LCA_ADBITS2
0473   0245 F0          	        MOVX    @DPTR, A
0474   0246 22          	        RET
0475   0247             
0476   0247             
0477   0247             ;------------------------------------------------------------------
0478   0247             ; WRITE_SETTINGS
0479   0247             ;
0480   0247             ; Store settings in EEPROM
0481   0247             ;------------------------------------------------------------------
0482   0247             
0483   0247             WRITE_SETTINGS:
0484   0247 75 F0 00    		MOV	B, #0
0485   024A 74 7C       		MOV	A, #124
0486   024C 12 09 D0    		LCALL	WREEPROM			; write signature
0487   024F 7F 09       		MOV	R7, #NR_EEP_ITEMS
0488   0251 78 08       		MOV	R0, #8
0489   0253 05 F0       eewr_loop:	INC	B				; Copy location 8-15 from IRAM to
0490   0255 E6          		MOV	A, @R0
0491   0256 12 09 D0    		LCALL	WREEPROM			; location 8-15 in EEPROM
0492   0259 08          		INC	R0
0493   025A DF F7       		DJNZ	R7, eewr_loop
0494   025C 22          		RET
0495   025D             
0496   025D             
0497   025D             ;--------------------------------------------------------------------
0498   025D             ; SET_TIMER
0499   025D             ;
0500   025D             ; intialize timer 0 to generate interrupts each 65 ms.
0501   025D             ;--------------------------------------------------------------------
0502   025D             
0503   025D C2 8C       SET_TIMER:	CLR	TR0				; stop timer 0
0504   025F 53 89 F0    		ANL	TMOD, #11110000b		; change to 16-bit timer (timer0 mode1)
0505   0262 43 89 01    		ORL	TMOD, #00000001b
0506   0265 D2 8C       		SETB	TR0				; timer run bit timer0
0507   0267 D2 A9       		SETB	ET0          			; enable timer0 int
0508   0269 22          		RET
0509   026A             
0510   026A             
0511   026A             ;------------------------------------------------------------------
0512   026A             ; LCA_INIT
0513   026A             ;
0514   026A             ; Initialize LCA, upload configuration (LCA1.ASM) to it
0515   026A             ;------------------------------------------------------------------
0516   026A             
0517   026A             LCA_INIT:
0518   026A 75 A0 00    		MOV	P2,#0			;to select block 00xxH
0519   026D D2 91       		SETB    LCA_DONE
0520   026F C2 AF       		CLR     IEC.7                   ;disable all interrupts
0521   0271             
0522   0271 C2 90       		CLR     LCA_nRES                ;reset LCA, the done/prg line is pulled low too
0523   0273 20 91 2E    		JB      LCA_DONE, lca_err1      ;should be low too
0524   0276 90 00 0A    		MOV     DPTR, #10
0525   0279 12 04 A5    		LCALL   DELAY                   ;reset low for 10 ms
0526   027C D2 90       		SETB    LCA_nRES                ;release reset line
0527   027E 90 00 02    		MOV     DPTR, #2
0528   0281 12 04 A5    		LCALL   DELAY                   ;wait 2 ms
0529   0284 90 14 F1    		MOV     DPTR, #LCA1_END
0530   0287 A8 82       		MOV     R0, DPL
0531   0289 A9 83       		MOV     R1, DPH                 ;temporarily store end address of LCA data
0532   028B 90 0A 17    		MOV     DPTR, #LCA1             ;dptr points to the start of LCADATA
0533   028E             
0534   028E 74 00       lcaim2: 	MOV     A, #0
0535   0290 93          		MOVC    A, @A+DPTR              ;load data byte in accumulator
0536   0291 7F 08       		MOV     R7, #8                  ;reset bit counter
0537   0293             
0538   0293 23          lcaim1: 	RL      A                      	;shift data byte, MSB first
0539   0294 F2          		MOVX	@R0, A			;clock out bit 0 to address 00xx.
0540   0295 DF FC       		DJNZ    R7, lcaim1              ;next bit
0541   0297             
0542   0297 A3          		INC     DPTR
0543   0298 E9          		MOV     A, R1
0544   0299 B5 83 F2    		CJNE    A, DPH, lcaim2
0545   029C E8          		MOV     A, R0
0546   029D B5 82 EE    		CJNE    A, DPL, lcaim2         ;if not the last byte take next
0547   02A0             
0548   02A0             		;check done pin
0549   02A0 20 91 01    		JB      LCA_DONE,lca_err2
0550   02A3 22          		RET
0551   02A4             
0552   02A4             lca_err1:
0553   02A4             lca_err2:
0554   02A4             		;### TODO: place error handling here
0555   02A4 22          		RET
0556   02A5             
0557   02A5             
0558   02A5             
0559   02A5             
0560   02A5             ;------------------------------------------------------------------
0561   02A5             ; DSP_INIT
0562   02A5             ;
0563   02A5             ; Provides serial download of DSP instructions via the RS232 port
0564   02A5             ; On error, carry is set and datapointer points to error message
0565   02A5             ;
0566   02A5             ; in R2/R3 is placed #(DSP1END - DSP1 - 2)/2
0567   02A5             ; in R4/R5 is placed #(DSP1END - DSP1)/2
0568   02A5             ; in R6/R7 is placed #DSP1
0569   02A5             ;------------------------------------------------------------------
0570   02A5             
0571   02A5             DSP_INIT:	;--- disable all interrupts ---
0572   02A5 C2 AF       		CLR	EA
0573   02A7             
0574   02A7             		;--- connect TX to DSP ---
0575   02A7 D2 93       		SETB	TX_SEL
0576   02A9 D2 B1       		SETB	SER_OUT
0577   02AB             
0578   02AB             		;--- initialize serial port for 4K8, 2 stopbits ---
0579   02AB 75 87 80    		MOV     PCON,#080H
0580   02AE 53 89 0F    		ANL	TMOD, #00001111b	; change t1mode to baudrate generator
0581   02B1 43 89 20    		ORL	TMOD, #00100000b
0582   02B4 75 98 DA    		MOV     SCON, #11011010b	; mode 3 , Enable receiver
0583   02B7 75 8B FA    		MOV     TL1,#BAUD9K6
0584   02BA 75 8D FA        		MOV     TH1,#BAUD9K6
0585   02BD D2 8E           		SETB    TCON.6          	; start counter
0586   02BF             
0587   02BF             		;--- give reset pulse ---
0588   02BF D2 B1       		SETB    SER_OUT         	; set BIO pin high to indicate serial transfer
0589   02C1 C2 92       		CLR     DSP_nRES
0590   02C3 90 00 0A    		MOV     DPTR,#10
0591   02C6 12 04 A5    		LCALL   DELAY
0592   02C9 D2 92       		SETB    DSP_nRES     	  	; give 10 ms reset pulse
0593   02CB 90 00 0A    		MOV     DPTR,#10
0594   02CE 12 04 A5    		LCALL   DELAY           	;
0595   02D1 C2 92       		CLR     DSP_nRES
0596   02D3 90 00 0A    		MOV     DPTR,#10
0597   02D6 12 04 A5    		LCALL   DELAY
0598   02D9 D2 92       		SETB    DSP_nRES     	  	; give 10 ms reset pulse
0599   02DB 90 00 0A    		MOV     DPTR,#10
0600   02DE 12 04 A5    		LCALL   DELAY           	; 10 ms delay after reset
0601   02E1             
0602   02E1             		;--- check XF state ---
0603   02E1 20 B2 07    		JB	DSP_STAT, dsi1		; should be high now!
0604   02E4 90 03 C0    		MOV	DPTR, #dsperr1
0605   02E7 D3          		SETB	C
0606   02E8 D2 AF       		SETB	EA			; enable interrupts
0607   02EA 22          		RET
0608   02EB             
0609   02EB             dsi1:         	;--- send baud rate detect byte ---
0610   02EB 74 FF       		MOV     A,#0FFh
0611   02ED 12 03 5A    		LCALL   DSP_PUTCH
0612   02F0             
0613   02F0             		;--- send status and program length minus two (!!!) ---
0614   02F0             ;	MOV	DPTR, #(DSP1END - DSP1 - 2)/2
0615   02F0 8A 82       		MOV	DPL, R2
0616   02F2 8B 83       		MOV	DPH, R3
0617   02F4 74 08       		MOV     A,#STSWORD
0618   02F6 45 83       		ORL     A,DPH		       	; add bit 0..2 (MSB's of program length)
0619   02F8 12 03 5A    		LCALL   DSP_PUTCH
0620   02FB 74 40       		MOV     A,#INTWORD       	; send interrupt word
0621   02FD 12 03 5A    		LCALL   DSP_PUTCH
0622   0300 E5 82       		MOV     A,DPL		       	; load bit 0..7 of program length
0623   0302 12 03 5A    		LCALL   DSP_PUTCH
0624   0305             
0625   0305             		;---- Transmit program ----
0626   0305             ;	MOV	DPTR, #(DSP1END - DSP1)/2
0627   0305 8C 82       		MOV	DPL, R4
0628   0307 8D 83       		MOV	DPH, R5	
0629   0309 A8 82       		MOV	R0,DPL
0630   030B A9 83       		MOV	R1,DPH			; store length in R0,R1
0631   030D 75 5B 00    		MOV	CSL, #0
0632   0310 75 5A 00    		MOV	CSH, #0			; checksum = 0
0633   0313             ;	MOV     DPTR,#DSP1		; start of data
0634   0313 8E 82       		MOV	DPL, R6
0635   0315 8F 83       		MOV	DPH, R7
0636   0317             
0637   0317 E8          dsploop:	MOV	A, R0			; while( length-- )
0638   0318 18          		DEC	R0
0639   0319 70 06       		JNZ	dspsend
0640   031B E9          		MOV	A, R1
0641   031C 19          		DEC	R1
0642   031D 70 02       		JNZ	dspsend
0643   031F 80 20       		SJMP	dspcs
0644   0321             
0645   0321 74 01       dspsend:	MOV     A,#1			; data is stored high byte first!
0646   0323 93          		MOVC    A,@A+DPTR
0647   0324 F5 59       		MOV	STOREL, A		; store temporarily
0648   0326 12 03 5A    		LCALL   DSP_PUTCH           	; transmit low byte
0649   0329 74 00       		MOV     A,#0
0650   032B 93          		MOVC    A,@A+DPTR
0651   032C F5 58       		MOV	STOREH, A		; store high byte
0652   032E 12 03 5A    		LCALL   DSP_PUTCH           	; transmit high byte
0653   0331 E5 5B       		MOV	A, CSL
0654   0333 25 59       		ADD	A, STOREL
0655   0335 F5 5B       		MOV	CSL, A
0656   0337 E5 5A       		MOV	A, CSH
0657   0339 35 58       		ADDC	A, STOREH
0658   033B F5 5A       		MOV	CSH, A			; add word to checksum
0659   033D A3          		INC     DPTR
0660   033E A3          		INC     DPTR			; next word
0661   033F 80 D6       		SJMP	dsploop
0662   0341             
0663   0341             dspcs:		;--- send checksum ---
0664   0341 E5 5B       		MOV     A,CSL
0665   0343 12 03 5A    		LCALL   DSP_PUTCH
0666   0346 E5 5A       		MOV     A,CSH
0667   0348 12 03 5A    		LCALL   DSP_PUTCH           	; send checksum
0668   034B             
0669   034B             		;--- test XF flag ---
0670   034B 90 00 02    		MOV	DPTR, #2
0671   034E 12 04 A5    		LCALL	DELAY			; some delay
0672   0351             		;JB	DSP_STAT, dspstart	; should be high now
0673   0351             		;MOV	DPTR, #dsperr2
0674   0351             		;SETB	C
0675   0351             		;SETB	EA			; enable interrupts
0676   0351             		;RET
0677   0351             
0678   0351             dspstart:	;------- send synchronisation word ----
0679   0351 74 FF       		MOV     A,#0FFh
0680   0353 12 03 5A    		LCALL   DSP_PUTCH           	; program starts now (if no errors...)
0681   0356 C3          		CLR	C
0682   0357 D2 AF       		SETB	EA			; enable interrupts
0683   0359 22          		RET
0684   035A             
0685   035A             ; XMIT a byte over the serial port
0686   035A 30 99 FD    DSP_PUTCH:	JNB     SCON.1,DSP_PUTCH	;wait until buffer is empty
0687   035D C2 99       		CLR     SCON.1
0688   035F F5 99       		MOV     SBUF,A
0689   0361 22          		RET
0690   0362             
0691   0362             
0692   0362             
0693   0362             ;-------------------------------------------------------
0694   0362             COM_INIT:
0695   0362             ;	
0696   0362             ;-------------------------------------------------------
0697   0362             
0698   0362 C2 8A       		CLR	IT1			; external int 1 on low level
0699   0364 D2 AA       		SETB	EX1			; enable external int 1
0700   0366 D2 AF       		SETB	EA			; global enable
0701   0368 22          		RET
0702   0369             
0703   0369             
0704   0369             
0705   0369             
0706   0369             ;-------------------------------------------------------
0707   0369             COM_TASK:
0708   0369             ;
0709   0369             ;-------------------------------------------------------
0710   0369             	
0711   0369 22          		RET			
0712   036A             
0713   036A             ;-------------------------------------------------------
0714   036A             LCAINT:	
0715   036A             ;	ISR for LCA xmit
0716   036A             ;
0717   036A             ;	Simple protocol: AD0..7 : data
0718   036A             ;			 AD8..9 : 00 = no data
0719   036A             ;				  11 = data valid
0720   036A             ;			 AD10   : parity
0721   036A             ;-------------------------------------------------------
0722   036A             
0723   036A C0 D0       		PUSH	PSW
0724   036C C0 F0       		PUSH	B
0725   036E C0 E0       		PUSH	ACC
0726   0370 C0 82       		PUSH	DPL
0727   0372 C0 83       		PUSH	DPH
0728   0374             
0729   0374 12 04 9C    		LCALL	KBHIT			; check if something to xmit
0730   0377 75 F0 00    		MOV	B, #0			; 0 = no data to xmit
0731   037A 74 00       		MOV	A, #0			; set to 0 for no data
0732   037C 50 0A       		JNC	no_tdata
0733   037E 12 04 80    		LCALL	GETCH
0734   0381 A2 D0       		MOV	C, PSW.0		; get parity bit
0735   0383 75 F0 03    		MOV	B, #3			; 3 = data available
0736   0386 92 F2       		MOV	B.2, C			; store in bit 2 of B register
0737   0388             
0738   0388 90 00 02    no_tdata:	MOV     DPTR, #LCA_ADBITS0
0739   038B F0          	        MOVX    @DPTR, A		; write low nibble (AD0..3)
0740   038C 90 00 03    		MOV     DPTR, #LCA_ADBITS1
0741   038F C4          		SWAP	A
0742   0390 F0          	        MOVX    @DPTR, A		; write mid nibble (AD4..7)
0743   0391 90 00 04    		MOV     DPTR, #LCA_ADBITS2
0744   0394 E5 F0       		MOV	A, B
0745   0396 F0          	        MOVX    @DPTR, A		; write high nibble (AD8..10) and clear int
0746   0397             
0747   0397 D0 83       		POP	DPH
0748   0399 D0 82       		POP	DPL
0749   039B D0 E0       		POP	ACC
0750   039D D0 F0       		POP	B
0751   039F D0 D0       		POP	PSW
0752   03A1 32          		RETI
0753   03A2             		
0754   03A2             
0755   03A2             
0756   03A2             ;--------------------------------------------------------------------------------
0757   03A2             ; TIM_IRQ
0758   03A2             ;
0759   03A2             ; Timer 0 interrupt service routine. Is called each 65535 us. If slow_tim
0760   03A2             ; times out, TO_FLAG is set.
0761   03A2             ;--------------------------------------------------------------------------------
0762   03A2             
0763   03A2 C0 E0       TIM_IRQ:	push 	ACC
0764   03A4 C0 D0       		push 	PSW
0765   03A6             
0766   03A6 E5 1D       		mov	A,TO_CNTHI
0767   03A8 60 08       		jz	tim_irq1
0768   03AA D5 1C 05    		djnz	TO_CNTLO, tim_irq1
0769   03AD D5 1D 02    		djnz	TO_CNTHI, tim_irq1
0770   03B0 D2 02       		setb	TO_FLAG2
0771   03B2             
0772   03B2 E5 1E       tim_irq1:	mov	A, SLOW_TIM
0773   03B4 60 05       		jz	tim_irq_end
0774   03B6 D5 1E 02    		djnz	SLOW_TIM, tim_irq_end		; decrement the timeout timer
0775   03B9 D2 01       		setb	TO_FLAG				; if 0, set flag
0776   03BB D0 D0       tim_irq_end:	pop	PSW				; restore
0777   03BD D0 E0       		pop	ACC
0778   03BF 32          		reti
0779   03C0             
0780   03C0             
0781   03C0 6572726F7220dsperr1:	.db	"error 1:DSP XF  \000"			; XF flag not detected
0781   03C6 313A445350205846202000
0782   03D1 6572726F7220dsperr2:	.db	"error 2:DSP CS  \000"			; Checksum error
0782   03D7 323A445350204353202000
0783   03E2 496E69746961boot_txt:	.db	"Initializing... \000"			; startup text
0783   03E8 6C697A696E672E2E2E2000
0784   03F3             
0785   03F3             #include "serial4.asm"			; serial routines
0001+  03F3             ;------------------------------------------------------------------
0002+  03F3             ; SERIAL4.ASM
0003+  03F3             ;
0004+  03F3             ; Serial handling for nicam AD communications
0005+  03F3             ;
0006+  03F3             ; Update : 980704 Werner, initial version
0007+  03F3             ;
0008+  03F3             ;
0009+  03F3             ; NOTE: The TX buffer ranges from 0x70 to 0x7F
0010+  03F3             ;	The RX buffer ranges from 0x60 to 0x6F
0011+  03F3             ;	Pointers SO_WP, SO_RP, SI_WP and SI_RP must be declared
0012+  03F3             ;	TX_ENA must be declared (high active port pin)
0013+  03F3             ;
0014+  03F3             ; Serial routines for the interface from RS232 to RS485.
0015+  03F3             ;
0016+  03F3             ; All received characters are stored in the receive buffer.
0017+  03F3             ;
0018+  03F3             ;------------------------------------------------------------------
0019+  03F3             
0020+  03F3             ;#define BAUDRATE    256-3                  ; 19200 bd on 11.0592 MHz
0021+  03F3             #define BAUDRATE    256-6                  ; 9k6 bd on 11.0592 MHz
0022+  03F3             
0023+  03F3             
0024+  03F3             
0025+  03F3             ;==================================================================
0026+  03F3             ; INITSERIAL:
0027+  03F3             ; 
0028+  03F3             ; initialize serial port for baudrate
0029+  03F3             ;==================================================================
0030+  03F3             INITSERIAL:
0031+  03F3             		
0032+  03F3 75 5F 70    	MOV	SO_WP, #70H
0033+  03F6 75 5E 70    	MOV	SO_RP, #70H
0034+  03F9 75 5D 60    	MOV	SI_WP, #60H
0035+  03FC 75 5C 60    	MOV	SI_RP, #60H		; clear pointers
0036+  03FF             
0037+  03FF C2 00       	CLR	TX_ENA			; clear txena flag
0038+  0401 75 87 80    	MOV     PCON,#080H
0039+  0404 53 89 0F    	ANL	TMOD, #00001111b	; change to 16-bit timer (timer0 mode1)
0040+  0407 43 89 20    	ORL	TMOD, #00100000b
0041+  040A 75 98 52    	MOV     SCON,#052H      	; mode 1 , Enable receiver=10H
0042+  040D 75 8B FA    	MOV     TL1,#BAUDRATE
0043+  0410 75 8D FA        	MOV     TH1,#BAUDRATE
0044+  0413 D2 8E           	SETB    TCON.6          	; start counter
0045+  0415 D2 AC       	SETB	IEC.4			; enable serial interrupt
0046+  0417 D2 BC       	SETB	IPC.4
0047+  0419 D2 AF       	SETB	IEC.7			; global interrupt enable
0048+  041B 22              	RET
0049+  041C             
0050+  041C             
0051+  041C             ;==================================================================
0052+  041C             ; SER_INT:
0053+  041C             ; 
0054+  041C             ; Serial interrupt routine. Transmits characters if any in the buffer
0055+  041C             ; and receive data.
0056+  041C             ;==================================================================
0057+  041C             
0058+  041C             SER_INT:
0059+  041C C0 D0       	PUSH	PSW
0060+  041E C0 E0       	PUSH	ACC
0061+  0420 C0 00       	PUSH	0
0062+  0422              
0063+  0422 30 99 1B    	JNB	TI, ser_txend		; transmit interrupt ? If not jump
0064+  0425 C2 99       	CLR	TI
0065+  0427 E5 5E       	MOV	A, SO_RP
0066+  0429 B5 5F 04    	CJNE	A, SO_WP, txb_notemp	; if not equal, tx buffer is not empty
0067+  042C C2 00       	CLR	TX_ENA			; clear txena bit (transmitter is off now)
0068+  042E 80 10       	SJMP	ser_txend
0069+  0430             txb_notemp:
0070+  0430 D2 00       	SETB	TX_ENA			; turnon txena bit, transmitter is on now
0071+  0432 A8 5E       	MOV	R0, SO_RP
0072+  0434 86 99       	MOV	SBUF, @R0		; SBUF = *so_rp
0073+  0436 E5 5E       	MOV	A, SO_RP
0074+  0438 24 01       	ADD	A, #1
0075+  043A 44 70       	ORL	A, #070H		; so_rp = (so_rp + 1) | 0x70
0076+  043C 54 7F       	ANL	A, #07FH
0077+  043E F5 5E       	MOV	SO_RP, A
0078+  0440             
0079+  0440             ser_txend:
0080+  0440 30 98 10    	JNB	RI,nint_rx
0081+  0443 C2 98       	CLR	RI
0082+  0445 A8 5D       	MOV	R0, SI_WP
0083+  0447 A6 99       	MOV	@R0, SBUF		; *si_wp = SBUF
0084+  0449 E5 5D       	MOV	A, SI_WP
0085+  044B 24 01       	ADD	A, #1
0086+  044D 44 70       	ORL	A, #070H
0087+  044F 54 6F       	ANL	A, #06FH
0088+  0451 F5 5D       	MOV	SI_WP, A		; si_wp = ((si_wp + 1) | 0x70 ) & 0x6f
0089+  0453             
0090+  0453             nint_rx:
0091+  0453 D0 00       	POP	0
0092+  0455 D0 E0       	POP	ACC
0093+  0457 D0 D0       	POP	PSW
0094+  0459 32          	RETI
0095+  045A             
0096+  045A             
0097+  045A             ;==================================================================
0098+  045A             ; PUTCH
0099+  045A             ; 
0100+  045A             ; transmits the character in A.
0101+  045A             ; Use: A
0102+  045A             ;==================================================================
0103+  045A             
0104+  045A             PUTCH:
0105+  045A C0 00       	PUSH	0
0106+  045C C0 E0       	PUSH	ACC
0107+  045E             tbuf_wait:
0108+  045E E5 5F       	MOV	A, SO_WP
0109+  0460 24 01       	ADD	A, #1
0110+  0462 44 70       	ORL	A, #070H
0111+  0464 B5 5E 02    	CJNE	A, SO_RP, tbuf_free
0112+  0467 80 F5       	SJMP	tbuf_wait		; if txbuf not free wait
0113+  0469             tbuf_free:
0114+  0469 A8 5F       	MOV	R0, SO_WP
0115+  046B D0 E0       	POP	ACC
0116+  046D F6          	MOV	@R0, A			; *(so_wp+1) = A
0117+  046E E5 5F       	MOV	A, SO_WP
0118+  0470 24 01       	ADD	A, #1
0119+  0472 44 70       	ORL	A, #070H
0120+  0474 54 7F       	ANL	A, #07FH
0121+  0476 F5 5F       	MOV	SO_WP, A
0122+  0478 D0 00       	POP	0
0123+  047A 20 00 02    	JB	TX_ENA, putch_end
0124+  047D D2 99       	SETB	TI			; if transmitter not active, set interrupt flag
0125+  047F             putch_end:
0126+  047F 22          	RET
0127+  0480             
0128+  0480             
0129+  0480             ;==================================================================
0130+  0480             ; GETCH
0131+  0480             ; 
0132+  0480             ; Reads a character from the RS232 port.
0133+  0480             ; If no character in buffer wait.
0134+  0480             ; Return the character in A.
0135+  0480             ; Use: A
0136+  0480             ;==================================================================
0137+  0480             
0138+  0480             GETCH:
0139+  0480 C0 00       	PUSH	0
0140+  0482             rbuf_wait:
0141+  0482 E5 5C       	MOV	A, SI_RP
0142+  0484 B5 5D 02    	CJNE	A, SI_WP, rbuf_ok
0143+  0487 80 F9       	SJMP	rbuf_wait		; wait until something in buffer
0144+  0489             rbuf_ok:
0145+  0489 F8          	MOV	R0, A
0146+  048A E6          	MOV	A, @R0
0147+  048B C0 E0       	PUSH	ACC
0148+  048D E5 5C       	MOV	A, SI_RP
0149+  048F 24 01       	ADD	A, #1
0150+  0491 44 70       	ORL	A, #070H
0151+  0493 54 6F       	ANL	A, #06FH
0152+  0495 F5 5C       	MOV	SI_RP, A
0153+  0497 D0 E0       	POP	ACC
0154+  0499 D0 00       	POP	0
0155+  049B 22          	RET
0156+  049C             
0157+  049C             
0158+  049C             ;==================================================================
0159+  049C             ; KBHIT
0160+  049C             ; 
0161+  049C             ; Checks if a character is in the buffer. If so, the routine
0162+  049C             ; returns with the carry set.
0163+  049C             ;
0164+  049C             ; Use: A,C
0165+  049C             ;==================================================================
0166+  049C             
0167+  049C             KBHIT:
0168+  049C E5 5C       	MOV	A, SI_RP
0169+  049E B5 5D 02    	CJNE	A, SI_WP, rbuf_filled
0170+  04A1 C3          	CLR	C
0171+  04A2 22          	RET
0172+  04A3             rbuf_filled:
0173+  04A3 D3          	SETB	C
0174+  04A4 22          	RET
0175+  04A5             
0176+  04A5             	.end
0177+  04A5             
0786   04A5             #include "diversen.h"                   ; 'delay' is used...
0001+  04A5             ;////[ DIVERSEN.H ]/////////////////////////////////////////////////////////////////
0002+  04A5             ;  Gezellige routines voor leuke dingesen
0003+  04A5             ;  Geschreven door Willem, Werner, Gerbert, Bert enz. enz. enz.
0004+  04A5             ;  Dit zijn DE routines, betere zijn er niet !
0005+  04A5             ;  Laatste datum: 19-2-1996
0006+  04A5             ;
0007+  04A5             ;  DIVERSEN.H bevat de volgende routines:
0008+  04A5             ;
0009+  04A5             ;  DELAY      : wacht een aantal milliseconden. Het aantal milliseconden moet
0010+  04A5             ;		in de datapointer staan. (bij een xtal van 12 MHz)
0011+  04A5             ;
0012+  04A5             ;////////////////////////////////////////////////////////////////////////////
0013+  04A5             
0014+  04A5             
0015+  04A5             
0016+  04A5             ;-----------------------------------------------------------------------------
0017+  04A5             DELAY:
0018+  04A5             	        ;wacht een aantal milliseconden. Het aantal milliseconden moet
0019+  04A5             		;in de datapointer staan.
0020+  04A5             		;gebruikte registers : DPTR
0021+  04A5             ;-----------------------------------------------------------------------------
0022+  04A5             
0023+  04A5 C0 E0       		PUSH	ACC
0024+  04A7 05 83       		INC	DPH
0025+  04A9 74 FA       delaym2:	MOV	A,#250
0026+  04AB 00          delaym1:	NOP			;1 us
0027+  04AC 00          		NOP			;1 us
0028+  04AD D5 E0 FB    		DJNZ	ACC,delaym1	;2 us
0029+  04B0 D5 82 F6    		DJNZ	DPL,delaym2
0030+  04B3 D5 83 F3    		DJNZ	DPH,delaym2
0031+  04B6 D0 E0       		POP	ACC
0032+  04B8 22          		RET
0787   04B9             #include "display2.h"			; LCD routines
0001+  04B9             ; UPDATED 990605 JWD - dispcheck
0002+  04B9             
0003+  04B9             
0004+  04B9             
0005+  04B9             ;///[ DISPLAY2.H ]/////////////////////////////////////////////////////////////////
0006+  04B9             ;                        DISPLAY aansturing
0007+  04B9             ;
0008+  04B9             ; GEMODIFICEERD VOOR 23 ZENDER !!!
0009+  04B9             ;
0010+  04B9             ;  Deze routines zijn voor de aansturing van LCD-display's met 1x16 of 2x16
0011+  04B9             ;  tekens. Als je deze routines wilt gebruiken moet je een van de volgende 
0012+  04B9             ;  regels in je hoofdprogramma plaatsen:
0013+  04B9             ;  #DEFINE SOORTLCD 16   (voor een 1x16 regelig display)
0014+  04B9             ;  of:
0015+  04B9             ;  #DEFINE SOORTLCD 32   (voor een 2x16 regelig display)
0016+  04B9             ;  standaard is een display met een 1x16 regelig display geselecteerd
0017+  04B9             ;
0018+  04B9             ;  Geschreven en getest door Willem en Werner 1994 ... 1996.
0019+  04B9             ;
0020+  04B9             ;  Bevat de volgende routines:
0021+  04B9             ;
0022+  04B9             ;  DISPINIT : initialiseert het LCD-display. Het scherm wordt schoongemaakt
0023+  04B9             ;             en de display wordt in 8 bits mode gezet.
0024+  04B9             ;  
0025+  04B9             ;  DISPUSER : Lees een aantal zelfgedefinieerde tekens in. Het startadres
0026+  04B9             ;             van de tekens moet in DPTR staan en het aantal tekens in  
0027+  04B9             ;             accu staan.
0028+  04B9             ;
0029+  04B9             ;  DISPCOM  : Stuur het byte in de accu naar het commandoregister van het
0030+  04B9             ;             display.
0031+  04B9             ;
0032+  04B9             ;  DISP2CHAR : Stuur het byte in de accu naar het dataregister van het
0033+  04B9             ;             display.
0034+  04B9             ;
0035+  04B9             ;  DISPBYTE : Beeld een hex getal van 0 - 0FFH vanuit de accu naar
0036+  04B9             ;             het display.
0037+  04B9             ;
0038+  04B9             ;  DISPTEXT : Stuur de door de DPTR aangegeven tekst naar het display.
0039+  04B9             ;
0040+  04B9             ;  DISPREAD : Lees een byte uit het dataregister van het display (nog niet
0041+  04B9             ;             geschreven). Byte komt terug in de accu.  
0042+  04B9             ;/////////////////////////////////////////////////////////////////////////
0043+  04B9             
0044+  04B9             DPWRCOM .EQU    0C000H
0045+  04B9             DPWRDAT .EQU    0C001H
0046+  04B9             DPRDCOM .EQU    0C002H
0047+  04B9             DPRDDAT .EQU    0C003H          ; Het adres waar het display zit.
0048+  04B9             
0049+  04B9~            #IFNDEF SOORTLCD
0050+  04B9~              #DEFINE SOORTLCD 16
0051+  04B9             #ENDIF
0052+  04B9             
0053+  04B9             
0054+  04B9                    
0055+  04B9             ;---------------------------------------------------------------
0056+  04B9             DISPINIT: 
0057+  04B9             	;Initialiseert het display.
0058+  04B9             	; gebruikt geen registers
0059+  04B9             ;---------------------------------------------------------------
0060+  04B9             
0061+  04B9 C0 E0       	PUSH  ACC
0062+  04BB 74 38       	MOV   A,#38H          ;8 bits mode
0063+  04BD 12 05 83    	LCALL DISPCOM         ;stuur naar controladres LCD
0064+  04C0 74 01       	MOV   A,#01H          ;clear display
0065+  04C2 12 05 83    	LCALL DISPCOM
0066+  04C5 74 0C       	MOV   A,#0CH          ;enable en cursor off
0067+  04C7 12 05 83    	LCALL DISPCOM
0068+  04CA 74 06       	MOV   A,#06H          ;shift right
0069+  04CC 12 05 83    	LCALL DISPCOM
0070+  04CF D0 E0       	POP   ACC
0071+  04D1 22          	RET
0072+  04D2             
0073+  04D2             
0074+  04D2             ;---------------------------------------------------------------------
0075+  04D2             DISPUSER:
0076+  04D2             		;leest een aantal door de gebruiker def. karakters in.
0077+  04D2             		;pointer naar de karakters in DPTR, aantal in A.
0078+  04D2             ;---------------------------------------------------------------------
0079+  04D2             
0080+  04D2 C0 F0       	  PUSH  B               ; B even wegzetten
0081+  04D4             
0082+  04D4 C3          	  CLR   C
0083+  04D5 33          	  RLC   A               ;X2
0084+  04D6 33          	  RLC   A               ;X4
0085+  04D7 33          	  RLC   A               ;X8
0086+  04D8             				;in de accu staat het aantal in te lezen
0087+  04D8             				;regels.
0088+  04D8 F5 F0       	  MOV   B,A             ; B gaat aftellen
0089+  04DA 74 40       	  MOV   A,#040H         ;CG RAM startadres
0090+  04DC 12 05 83    	  LCALL DISPCOM
0091+  04DF             
0092+  04DF 74 00       USCHM1:   MOV   A,#0
0093+  04E1 93          	  MOVC  A,@A+DPTR         ;Lees een byte en
0094+  04E2 C0 83       	  PUSH    DPH
0095+  04E4 C0 82       	  PUSH    DPL
0096+  04E6 C0 E0       	  PUSH    ACC             ;zet accu even op de stack
0097+  04E8             	; WACHT OP BUSYVLAG
0098+  04E8 90 C0 02    	  MOV     DPTR,#DPRDCOM
0099+  04EB E0          USCHM2:   MOVX    A,@DPTR         ;lees het commando/statusregister
0100+  04EC 20 E7 FC    	  JB      ACC.7,USCHM2     ;wacht tot het 7e bit laag is (busy-vlag)
0101+  04EF             	; SCHRIJF DATA NAAR DISPLAY
0102+  04EF 90 C0 01    	  MOV     DPTR,#DPWRDAT
0103+  04F2 D0 E0       	  POP     ACC             ;haal accu terug van stack
0104+  04F4 F0          	  MOVX    @DPTR,A
0105+  04F5 D0 82       	  POP     DPL
0106+  04F7 D0 83       	  POP     DPH
0107+  04F9 A3          	  INC     DPTR            ;volgende byte
0108+  04FA D5 F0 E2    	  DJNZ    B,USCHM1
0109+  04FD 74 80       	  MOV     A,#80H
0110+  04FF 12 05 83    	  LCALL   DISPCOM         ;CURSOR LINKSBOVEN
0111+  0502 D0 F0       	  POP     B               ;B terughalen.
0112+  0504 22          	  RET
0113+  0505             
0114+  0505             
0115+  0505             ;------------------------------------------------------------------------
0116+  0505             DISPTEXT:
0117+  0505             	;schrijft een string, beginnend op het adres aangegeven door DPTR
0118+  0505             	;en eindigend met een '\0' naar het display.
0119+  0505             	;de registers worden niet aangetast.
0120+  0505             ;------------------------------------------------------------------------
0121+  0505 C0 83       		PUSH    DPH                
0122+  0507 C0 82       		PUSH    DPL                            
0123+  0509 C0 E0       		PUSH    ACC             ;DPTR,ACC opslaan
0124+  050B             
0125+  050B 74 00       distxt1:        MOV     A,#0
0126+  050D 93          		MOVC    A,@A+DPTR       ;lees een teken
0127+  050E 60 06       		JZ      distxt2         ;als het een 0 is is hij KLAAR!
0128+  0510 12 05 46    		LCALL   DISP2CHAR        ;schrijf naar display
0129+  0513 A3          		INC     DPTR
0130+  0514 80 F5       		SJMP    distxt1
0131+  0516             
0132+  0516 D0 E0       distxt2:        POP     ACC
0133+  0518 D0 82       		POP     DPL
0134+  051A D0 83       		POP     DPH
0135+  051C 22          		RET                     ; UITGANG KOMPLETE ROUTINE
0136+  051D             
0137+  051D             
0138+  051D             ;------------------------------------------------------------------
0139+  051D             DISPCHECK:
0140+  051D             ;------------------------------------------------------------------
0141+  051D             
0142+  051D 74 40       		MOV	A, #040H
0143+  051F 12 05 83    		LCALL	DISPCOM	
0144+  0522 90 C0 02    		MOV     DPTR,#DPRDCOM	
0145+  0525 E0          dispchk1:   	MOVX    A,@DPTR         ;lees het commando/statusregister
0146+  0526 20 E7 FC    		JB      ACC.7,dispchk1	;wacht tot het 7e bit laag is (busy-vlag)
0147+  0529 90 C0 01    		MOV     DPTR,#DPWRDAT
0148+  052C 74 55       		MOV	A, #055H
0149+  052E F0          		MOVX    @DPTR,A		;write
0150+  052F             		;lees byte terug
0151+  052F 74 40       		MOV	A, #040H
0152+  0531 12 05 83    		LCALL	DISPCOM
0153+  0534 90 C0 02    		MOV     DPTR,#DPRDCOM	
0154+  0537 E0          dispchk2:   	MOVX    A,@DPTR         ;lees het commando/statusregister
0155+  0538 20 E7 FC    		JB      ACC.7,dispchk2	;wacht tot het 7e bit laag is (busy-vlag)
0156+  053B 90 C0 03    		MOV     DPTR,#DPRDDAT
0157+  053E E0          		MOVX    A,@DPTR
0158+  053F B4 55 02    		CJNE	A, #055H, dispchk3
0159+  0542 D3          		SETB	C
0160+  0543 22          		RET
0161+  0544 C3          dispchk3:	CLR	C
0162+  0545 22          		RET
0163+  0546             
0164+  0546             
0165+  0546             ;--------------------------------------------------------------------
0166+  0546             DISP2CHAR:
0167+  0546             		;schrijft het karakter in de accu naar het display.
0168+  0546             		;Leest na het schrijven naar het display de cursorpositie
0169+  0546             		;uit en plaatst indien nodig de cursor op de goede plek         
0170+  0546             ;---------------------------------------------------------------------
0171+  0546             		;BEWAAR REGISTERS EVEN
0172+  0546 C0 83       		PUSH    DPH                
0173+  0548 C0 82       		PUSH    DPL
0174+  054A C0 E0       		PUSH    ACC             ;zet accu even op de stack
0175+  054C             
0176+  054C             		; WACHT OP BUSYVLAG
0177+  054C 90 C0 02    		MOV     DPTR,#DPRDCOM
0178+  054F E0          putchrm1:       MOVX    A,@DPTR         ;lees het commando/statusregister
0179+  0550 20 E7 FC    		JB      ACC.7,putchrm1  ;wacht tot het 7e bit laag is (busy-vlag)
0180+  0553             
0181+  0553             		; SCHRIJF DATA NAAR DISPLAY
0182+  0553 90 C0 01    		MOV     DPTR,#DPWRDAT
0183+  0556 D0 E0       		POP     ACC             ;haal accu terug van stack
0184+  0558 F0          		MOVX    @DPTR,A
0185+  0559 C0 E0       		PUSH    ACC
0186+  055B             
0187+  055B             ;                LCALL   DISPREADCOM     ;lees de cursorpositie          
0188+  055B             ;                MOV     DPL,A           ;sla de accu even op in DPL
0189+  055B             ;                ANL     A,#03FH         ;kijk alleen naar de laatste 6 bits
0190+  055B             ;                CJNE    A,#SOORTLCD/2,putchrm2
0191+  055B             ;                MOV     A,DPL           ;haal de accu terug
0192+  055B             ;                ANL     A,#11000000b    ;maak de onderste 6 bits 0
0193+  055B             ;                XRL     A,#11000000b    ;inverteer bit 6 en bit 7
0194+  055B             ;                LCALL   DISPCOM         ;zet cursor op de goeie plek
0195+  055B             
0196+  055B             putchrm2:       ;ZET REGISTERS TERUG
0197+  055B D0 E0       		POP     ACC
0198+  055D D0 82       		POP     DPL
0199+  055F D0 83       		POP     DPH
0200+  0561 22          		RET
0201+  0562             
0202+  0562             
0203+  0562             
0204+  0562             ;----------------------------------------------------------------------  
0205+  0562             DISPBYTE:
0206+  0562             		;zet het getal in de accu in hex in het display.
0207+  0562             ;----------------------------------------------------------------------
0208+  0562             
0209+  0562 C0 E0       		PUSH    ACC
0210+  0564 C0 E0       		PUSH    ACC               ; Zet de accu op de stack
0211+  0566 54 F0       		ANL     A,#0F0H           ; Filter eerste nibbel eruit
0212+  0568 C4          		SWAP    A                 ; Switch de nibble's
0213+  0569 B1 78       		ACALL   hexconv
0214+  056B B1 46       		ACALL   DISP2CHAR          ; Verstuur naar de lcd
0215+  056D D0 E0       		POP     ACC               ; Haal de accu van de stack
0216+  056F 54 0F       		ANL     A,#0FH            ; Filter tweede nibbel eruit
0217+  0571 B1 78       		ACALL   hexconv
0218+  0573 B1 46       		ACALL   DISP2CHAR          ; Verstuur naar de lcd
0219+  0575 D0 E0       		POP     ACC
0220+  0577 22          		RET                      ; Terug naar de aanroep
0221+  0578             
0222+  0578 44 30       hexconv:        ORL     A,#030H
0223+  057A B4 39 01    		CJNE    A,#039H,dispb    ; als het niet 9 is spring
0224+  057D 22          dispc:          RET
0225+  057E 40 FD       dispb:          JC      dispc           ; als het kleiner is dan 9 spring
0226+  0580 24 07       		ADD     A,#7            ; als het groter is dan 9 tel er 7 bij op
0227+  0582 22          		RET
0228+  0583             
0229+  0583             
0230+  0583             
0231+  0583             ;------------------------------------------------------------
0232+  0583             DISPCOM: ;schrijft naar het commandoregister van het display
0233+  0583             ;------------------------------------------------------------
0234+  0583 C0 83       		PUSH    DPH                
0235+  0585 C0 82       		PUSH    DPL
0236+  0587 C0 E0       		PUSH    ACC             ;zet accu even op de stack
0237+  0589 90 C0 02    		MOV     DPTR,#DPRDCOM   
0238+  058C E0          putcomm1:       MOVX    A,@DPTR         ;lees het commando/statusregister
0239+  058D 20 E7 FC    		JB      ACC.7,putcomm1  ;wacht tot het 7e bit laag is (busy-vlag)
0240+  0590 90 C0 00    		MOV     DPTR,#DPWRCOM
0241+  0593 D0 E0       		POP     ACC             ;haal accu terug van stack
0242+  0595 F0          		MOVX    @DPTR,A         ;en schrijf naar het display
0243+  0596 D0 82       		POP     DPL
0244+  0598 D0 83       		POP     DPH
0245+  059A 22          		RET
0246+  059B             
0247+  059B             
0248+  059B             ;--------------------------------------------------------------
0249+  059B             DISPREAD:       
0250+  059B             		;lees een byte van het display en zet dit in de accu
0251+  059B             ;--------------------------------------------------------------------
0252+  059B             
0253+  059B             
0254+  059B             		;BEWAAR REGISTERS EVEN
0255+  059B C0 83       		PUSH    DPH                
0256+  059D C0 82       		PUSH    DPL
0257+  059F             
0258+  059F             		; WACHT OP BUSYVLAG
0259+  059F 90 C0 02    		MOV     DPTR,#DPRDCOM
0260+  05A2 E0          rdchrm1:        MOVX    A,@DPTR         ;lees het commando/statusregister
0261+  05A3 20 E7 FC    		JB      ACC.7,rdchrm1   ;wacht tot het 7e bit laag is (busyvlag)
0262+  05A6             
0263+  05A6             		; lees data van display
0264+  05A6 90 C0 03    		MOV     DPTR,#DPRDDAT
0265+  05A9 E0          		MOVX    A,@DPTR
0266+  05AA C0 E0       		PUSH    ACC
0267+  05AC             
0268+  05AC 12 05 C6    		LCALL   DISPREADCOM     ;lees de cursorpositie          
0269+  05AF F5 82       		MOV     DPL,A           ;sla de accu even op in DPL
0270+  05B1 54 3F       		ANL     A,#03FH         ;kijk alleen naar de laatste 6 bits
0271+  05B3 B4 08 09    		CJNE    A,#SOORTLCD/2,readchrm2
0272+  05B6 E5 82       		MOV     A,DPL           ;haal de accu terug
0273+  05B8 54 C0       		ANL     A,#11000000b    ;maak de onderste 6 bits 0
0274+  05BA 64 C0       		XRL     A,#11000000b    ;inverteer bit 6 en bit 7
0275+  05BC 12 05 83    		LCALL   DISPCOM         ;zet cursor op de goeie plek
0276+  05BF             
0277+  05BF             readchrm2:      ;ZET REGISTERS TERUG
0278+  05BF D0 E0       		POP     ACC
0279+  05C1 D0 82       		POP     DPL
0280+  05C3 D0 83       		POP     DPH
0281+  05C5 22          		RET
0282+  05C6             		
0283+  05C6             
0284+  05C6             ;--------------------------------------------------------------
0285+  05C6             DISPREADCOM:       
0286+  05C6             		;lees het adres van het display en zet dit in de accu
0287+  05C6             ;--------------------------------------------------------------------
0288+  05C6             
0289+  05C6             		;BEWAAR REGISTERS EVEN
0290+  05C6 C0 83       		PUSH    DPH                
0291+  05C8 C0 82       		PUSH    DPL
0292+  05CA             
0293+  05CA             		; WACHT OP BUSYVLAG
0294+  05CA 90 C0 02    		MOV     DPTR,#DPRDCOM
0295+  05CD E0          drdcom1:        MOVX    A,@DPTR         ;lees het commando/statusregister
0296+  05CE 20 E7 FC    		JB      ACC.7,drdcom1   ;wacht tot het 7e bit laag is (busyvlag)
0297+  05D1             
0298+  05D1             		;in de accu staat nu de cursorpositie (?)
0299+  05D1             		; ZET REGISTERS TERUG
0300+  05D1 D0 82       		POP     DPL
0301+  05D3 D0 83       		POP     DPH
0302+  05D5 22          		RET
0303+  05D6             
0304+  05D6             
0305+  05D6             
0788   05D6             #include "menu.asm"
0001+  05D6             ;============================================================================
0002+  05D6             ; Project:      Nicam coder
0003+  05D6             ;
0004+  05D6             ; File:         Menu.asm
0005+  05D6             ; 
0006+  05D6             ; Date:         981010 JWD initial version
0007+  05D6             ;               000102 JWD 1khz beep added, version nr increased
0008+  05D6             ;
0009+  05D6             ; Key handlers and menu functions for Nicam coder.
0010+  05D6             ;============================================================================
0011+  05D6             
0012+  05D6             
0013+  05D6             
0014+  05D6             ;----------------------------------------------------------------------------
0015+  05D6             ; KEY_TASK
0016+  05D6             ;
0017+  05D6             ; Handle keys
0018+  05D6             ;----------------------------------------------------------------------------
0019+  05D6             
0020+  05D6             KEY_TASK:
0021+  05D6 30 96 1E    		JNB     nKEY1, KEY_MENU
0022+  05D9 30 95 3F    		JNB     nKEY2, KEY_DOWN
0023+  05DC 30 94 35    		JNB     nKEY3, KEY_UP
0024+  05DF 10 01 04    		JBC     TO_FLAG, store          ; If timeoutflag is set, it's time to store the settings
0025+  05E2 10 02 09    		JBC     TO_FLAG2, quitmenu
0026+  05E5 22          		RET
0027+  05E6             
0028+  05E6 D2 97       store:          SETB    LED
0029+  05E8 12 02 47    		LCALL   WRITE_SETTINGS
0030+  05EB C2 97       		CLR     LED
0031+  05ED 22          		RET
0032+  05EE             
0033+  05EE 75 1F 00    quitmenu:       MOV     MENU_NR, #0             ; show the welcome text after 1 minute of no keypresses
0034+  05F1 78 00       		MOV     R0, #0
0035+  05F3 12 06 39    		LCALL   SHOW_MENU
0036+  05F6 22          		RET
0037+  05F7             
0038+  05F7             
0039+  05F7             ;----------------------------------------------------------------------------
0040+  05F7             ; KEY_XX:
0041+  05F7             ;
0042+  05F7             ; Called if a key is pressed.
0043+  05F7             ;----------------------------------------------------------------------------
0044+  05F7             
0045+  05F7             KEY_MENU:
0046+  05F7 E5 1F       		MOV     A, MENU_NR              ; check menu item nr
0047+  05F9 70 05       		JNZ     next_item               ; if not in the menu
0048+  05FB 85 10 1F    		MOV     MENU_NR, LAST_NR        ; goto last used item
0049+  05FE 80 02       		SJMP    last_item
0050+  0600 05 1F       next_item:      INC     MENU_NR                 ; else increment itemnr
0051+  0602 E5 1F       last_item:      MOV     A, MENU_NR
0052+  0604 B4 09 03    		CJNE    A, #9, menu1
0053+  0607 75 1F 01    		MOV     MENU_NR, #1
0054+  060A 78 00       menu1:          MOV     R0, #0
0055+  060C 12 06 39    		LCALL   SHOW_MENU
0056+  060F 85 1F 10    		MOV     LAST_NR, MENU_NR        ; Store last menu item
0057+  0612 80 0C       		SJMP    debounce
0058+  0614             
0059+  0614 78 01       KEY_UP:         MOV     R0, #1                          ; increment value
0060+  0616 12 06 39    		LCALL   SHOW_MENU;
0061+  0619 80 05       		SJMP    debounce
0062+  061B             
0063+  061B 78 FF       KEY_DOWN:       MOV     R0, #-1                         ; decrement value
0064+  061D 12 06 39    		LCALL   SHOW_MENU
0065+  0620             
0066+  0620 90 00 19    debounce:       MOV     DPTR, #25
0067+  0623 12 04 A5    		LCALL   DELAY
0068+  0626 30 96 F7    		JNB     nKEY1, debounce
0069+  0629 30 95 F4    		JNB     nKEY2, debounce
0070+  062C 30 94 F1    		JNB     nKEY3, debounce
0071+  062F 75 1C FF    		MOV     TO_CNTLO, #255
0072+  0632 75 1D 04    		MOV     TO_CNTHI, #4                    ; +- 1 minute timeout until menu quits
0073+  0635             ;       CJNE    R0, #0, changes                 ; see if a change is made in the settings
0074+  0635             ;       RET
0075+  0635 75 1E B4    changes:        MOV     SLOW_TIM, #180                  ; store after 6,5 seconds
0076+  0638 22          		RET
0077+  0639             
0078+  0639             
0079+  0639             ;----------------------------------------------------------------------------
0080+  0639             ; SHOW_MENU:
0081+  0639             ;
0082+  0639             ; Show menu text in display. The value in R0 is added to the selected item.
0083+  0639             ; If R0 != 0 then the configuration is updated
0084+  0639             ;----------------------------------------------------------------------------
0085+  0639             
0086+  0639 E5 1F       SHOW_MENU:      MOV     A, MENU_NR
0087+  063B 70 07       		JNZ     not_m0
0088+  063D 90 07 8B    		MOV     DPTR, #welc_txt
0089+  0640 12 07 48    		LCALL   MTXT
0090+  0643 22          		RET
0091+  0644             
0092+  0644 B4 01 17    not_m0:         CJNE    A, #1, not_m1                   ; Item 1 = input
0093+  0647 E5 09       		MOV     A, INPUT
0094+  0649 79 02       		MOV     R1, #2
0095+  064B 12 07 6B    		LCALL   ADD_A
0096+  064E F5 09       		MOV     INPUT, A                
0097+  0650 90 07 9B    		MOV     DPTR, #input_txt
0098+  0653 12 07 48    		LCALL   MTXT                            ; show (new) value
0099+  0656 B8 00 01    		CJNE    R0, #0, m0c                     ; check if changed
0100+  0659 22          		RET
0101+  065A 12 00 AF    m0c:            LCALL   SET_IN_OUTPUT                   ; if changed, update configuration
0102+  065D 22          		RET
0103+  065E             
0104+  065E B4 02 17    not_m1:         CJNE    A, #2, not_m2                   ; Item 2 = output
0105+  0661 E5 08       		MOV     A, OUTPUT
0106+  0663 79 03       		MOV     R1, #3
0107+  0665 12 07 6B    		LCALL   ADD_A
0108+  0668 F5 08       		MOV     OUTPUT, A
0109+  066A 90 07 BB    		MOV     DPTR, #output_txt
0110+  066D 12 07 48    		LCALL   MTXT                            ; show (new) value
0111+  0670 B8 00 01    		CJNE    R0, #0, m1c                     ; check if changed
0112+  0673 22          		RET
0113+  0674 12 00 AF    m1c:            LCALL   SET_IN_OUTPUT                   ; if changed, update configuration
0114+  0677 22          		RET
0115+  0678             
0116+  0678 B4 03 27    not_m2:         CJNE    A, #3, not_m3                   ; Item 3 = input level
0117+  067B E5 0A       shw_inlvl:      MOV     A, INPUT_LVL
0118+  067D 79 04       		MOV     R1, #4
0119+  067F 12 07 6B    		LCALL   ADD_A
0120+  0682 F5 0A       		MOV     INPUT_LVL, A
0121+  0684 90 07 EB    		MOV     DPTR, #inlvl_txt
0122+  0687 12 07 48    		LCALL   MTXT                            ; show (new) value
0123+  068A B8 00 01    		CJNE    R0, #0, m2c                     ; check if changed
0124+  068D 22          		RET
0125+  068E 90 07 7B    m2c:            MOV     DPTR, #wait_txt                 ; show wait-text
0126+  0691 74 00       		MOV     A, #0
0127+  0693 12 07 48    		LCALL   MTXT
0128+  0696 12 01 0F    		LCALL   SET_DSP                         ; if changed, update configuration
0129+  0699 E5 0A       		MOV     A, INPUT_LVL
0130+  069B 90 07 EB    		MOV     DPTR, #inlvl_txt
0131+  069E 12 07 48    		LCALL   MTXT                            ; and show again the input level
0132+  06A1 22          		RET
0133+  06A2             
0134+  06A2 B4 04 27    not_m3:         CJNE    A, #4, not_m4                   ; Item 4 = preemphasis on/off
0135+  06A5 E5 0B       		MOV     A, PREEMP
0136+  06A7 79 02       		MOV     R1, #2
0137+  06A9 12 07 6B    		LCALL   ADD_A
0138+  06AC F5 0B       		MOV     PREEMP, A
0139+  06AE 90 08 2B    		MOV     DPTR, #preemp_txt
0140+  06B1 12 07 48    		LCALL   MTXT                            ; show (new) value
0141+  06B4 B8 00 01    		CJNE    R0, #0, m3c                     ; check if changed
0142+  06B7 22          		RET
0143+  06B8 90 07 7B    m3c:            MOV     DPTR, #wait_txt                 ; show wait-text
0144+  06BB 74 00       		MOV     A, #0
0145+  06BD 12 07 48    		LCALL   MTXT
0146+  06C0 12 01 0F    		LCALL   SET_DSP                         ; if changed, update configuration
0147+  06C3 E5 0B       		MOV     A, PREEMP
0148+  06C5 90 08 2B    		MOV     DPTR, #preemp_txt
0149+  06C8 12 07 48    		LCALL   MTXT                            ; and show again the preemp state
0150+  06CB 22          		RET
0151+  06CC             
0152+  06CC B4 05 17    not_m4:         CJNE    A, #5, not_m5                   ; Item 5 = Reserve sound switch (C4 bit)
0153+  06CF E5 0C       		MOV     A, C4BIT
0154+  06D1 79 02       		MOV     R1, #2
0155+  06D3 12 07 6B    		LCALL   ADD_A
0156+  06D6 F5 0C       		MOV     C4BIT, A
0157+  06D8 90 08 4B    		MOV     DPTR, #c4bit_txt
0158+  06DB 12 07 48    		LCALL   MTXT                            ; show (new) value
0159+  06DE B8 00 01    		CJNE    R0, #0, m4c                     ; check if changed
0160+  06E1 22          		RET
0161+  06E2 12 00 FE    m4c:            LCALL   SET_CBITS                       ; if changed, update configuration
0162+  06E5 22          		RET
0163+  06E6             
0164+  06E6 B4 06 17    not_m5:         CJNE    A, #6, not_m6                   ; Item 6 = Nicam mode
0165+  06E9 E5 0D       		MOV     A, NICMODE
0166+  06EB 79 04       		MOV     R1, #4
0167+  06ED 12 07 6B    		LCALL   ADD_A
0168+  06F0 F5 0D       		MOV     NICMODE, A
0169+  06F2 90 08 6B    		MOV     DPTR, #nicmode_txt
0170+  06F5 12 07 48    		LCALL   MTXT                            ; show (new) value
0171+  06F8 B8 00 01    		CJNE    R0, #0, m5c                     ; check if changed
0172+  06FB 22          		RET
0173+  06FC 12 00 FE    m5c:            LCALL   SET_CBITS                       ; if changed, update configuration
0174+  06FF 22          		RET
0175+  0700             
0176+  0700 B4 07 27    not_m6:         CJNE    A, #7, not_m7                   ; Item 7 = Test functions
0177+  0703 E5 0E       		MOV     A, NICTEST
0178+  0705 79 04       		MOV     R1, #4
0179+  0707 12 07 6B    		LCALL   ADD_A
0180+  070A F5 0E       		MOV     NICTEST, A
0181+  070C 90 08 AB    		MOV     DPTR, #nictest_txt
0182+  070F 12 07 48    		LCALL   MTXT                            ; show (new) value
0183+  0712 B8 00 01    		CJNE    R0, #0, m6c                     ; check if changed
0184+  0715 22          		RET
0185+  0716 90 07 7B    m6c:            MOV     DPTR, #wait_txt                 ; show wait-text
0186+  0719 74 00       		MOV     A, #0
0187+  071B 12 07 48    		LCALL   MTXT
0188+  071E 12 01 0F    		LCALL   SET_DSP                         ; if changed, update configuration
0189+  0721 E5 0E       		MOV     A, NICTEST
0190+  0723 90 08 AB    		MOV     DPTR, #nictest_txt
0191+  0726 12 07 48    		LCALL   MTXT                            ; and show again the test state
0192+  0729 22          		RET
0193+  072A             
0194+  072A B4 08 17    not_m7:         CJNE    A, #8, not_valid                ; Item 8 = scrambling off/1/2
0195+  072D E5 0F       		MOV     A, SCRAMBLE
0196+  072F 79 03       		MOV     R1, #3				; off/1/2 (3 choices)
0197+  0731 12 07 6B    		LCALL   ADD_A
0198+  0734 F5 0F       		MOV     SCRAMBLE, A
0199+  0736 90 08 EB    		MOV     DPTR, #scramble_txt
0200+  0739 12 07 48    		LCALL   MTXT                            ; show (new) value
0201+  073C B8 00 01    		CJNE    R0, #0, m7c                     ; check if changed
0202+  073F 22          		RET
0203+  0740 12 00 C2    m7c:            LCALL   SET_SCRAMBLE                    ; if changed, update configuration
0204+  0743 22          		RET
0205+  0744             
0206+  0744 75 1F 01    not_valid:      MOV     MENU_NR, #1                     ; To restore invalid LAST_NR variable
0207+  0747 22          		RET                                     ; ERROR! 
0208+  0748             
0209+  0748             
0210+  0748             ;----------------------------
0211+  0748             MTXT:           ; show text. Uses R1,R2. Accu points to the index
0212+  0748 C4          		SWAP    A
0213+  0749 F9          		MOV     R1, A
0214+  074A 74 80       		MOV     A, #080H
0215+  074C 12 05 83    		LCALL   DISPCOM                         ; cursor home
0216+  074F 7A 08       		MOV     R2, #8
0217+  0751 E9          m_sh1:          MOV     A, R1
0218+  0752 93          		MOVC    A, @A+DPTR
0219+  0753 12 05 46    		LCALL   DISP2CHAR
0220+  0756 A3          		INC     DPTR
0221+  0757 DA F8       		DJNZ    R2, m_sh1
0222+  0759 74 C0       		MOV     A, #0C0H
0223+  075B             #IFDEF  TWOROW_DISPLAY
0224+  075B 74 88       		MOV     A, #088H
0225+  075D             #ENDIF
0226+  075D 12 05 83    		LCALL   DISPCOM                         ; cursor to position 8
0227+  0760 7A 08       		MOV     R2, #8
0228+  0762 E9          m_sh2:          MOV     A, R1
0229+  0763 93          		MOVC    A, @A+DPTR              
0230+  0764 12 05 46    		LCALL   DISP2CHAR
0231+  0767 A3          		INC     DPTR
0232+  0768 DA F8       		DJNZ    R2, m_sh2
0233+  076A 22          m_end:          RET
0234+  076B             
0235+  076B             
0236+  076B             
0237+  076B             ;---------------------------
0238+  076B             ADD_A:          ; add the value in the accu and check if a is between 0 and R1-1
0239+  076B 28          		ADD     A, R0
0240+  076C B4 FF 05    		CJNE    A, #-1, notmin1
0241+  076F 74 00       		MOV     A, #0
0242+  0771 78 00       		MOV     R0, #0                  ; no changes made!
0243+  0773 22          		RET
0244+  0774 B5 01 03    notmin1:        CJNE    A, 1, notmax1
0245+  0777 14          		DEC     A
0246+  0778 78 00       		MOV     R0, #0                  ; no changes made!
0247+  077A 22          notmax1:        RET
0248+  077B             
0249+  077B             
0250+  077B 20506C656173wait_txt:       .db     " Please wait... "
0250+  0781 6520776169742E2E2E20
0251+  078B             
0252+  078B 4E4943414D20welc_txt:       .db     "NICAM coder 1.4s"
0252+  0791 636F64657220312E3473
0253+  079B             
0254+  079B 496E7075743Ainput_txt:      .db     "Input: ANALOG   "
0254+  07A1 20414E414C4F47202020
0255+  07AB 496E7075743A		.db     "Input: SPDIF    "
0255+  07B1 20535044494620202020
0256+  07BB             
0257+  07BB 4F7574707574output_txt:     .db     "Output: 5.85 MHz"
0257+  07C1 3A20352E3835204D487A
0258+  07CB 4F7574707574		.db     "Output: 6.552MHz"
0258+  07D1 3A20362E3535324D487A
0259+  07DB 4F7574707574		.db     "Output: 1.44 MHz"
0259+  07E1 3A20312E3434204D487A
0260+  07EB             
0261+  07EB 496E702E6C65inlvl_txt:      .db     "Inp.level: -6 dB"
0261+  07F1 76656C3A202D36206442
0262+  07FB 496E702E6C65		.db     "Inp.level: +0 dB"
0262+  0801 76656C3A202B30206442
0263+  080B 496E702E6C65		.db     "Inp.level: +6 dB"
0263+  0811 76656C3A202B36206442
0264+  081B 496E702E6C65		.db     "Inp.level:+12 dB"
0264+  0821 76656C3A2B3132206442
0265+  082B             
0266+  082B 507265656D70preemp_txt:     .db     "Preemphasis: OFF"
0266+  0831 68617369733A204F4646
0267+  083B 507265656D70		.db     "Preemphasis: ON "
0267+  0841 68617369733A204F4E20
0268+  084B             
0269+  084B 526573657276c4bit_txt:      .db     "Reserve snd: OFF"
0269+  0851 6520736E643A204F4646
0270+  085B 526573657276		.db     "Reserve snd: ON "
0270+  0861 6520736E643A204F4E20
0271+  086B             
0272+  086B             
0273+  086B 4D6F64653A20nicmode_txt:    .db     "Mode: STEREO    "
0273+  0871 53544552454F20202020
0274+  087B 4D6F64653A20		.db     "Mode: DUAL MONO "
0274+  0881 4455414C204D4F4E4F20
0275+  088B 4D6F64653A20		.db     "Mode: MONO+DATA "
0275+  0891 4D4F4E4F2B4441544120
0276+  089B 4D6F64653A20		.db     "Mode: DATA ONLY "
0276+  08A1 44415441204F4E4C5920
0277+  08AB             
0278+  08AB 546573743A20nictest_txt:    .db     "Test: OFF       "
0278+  08B1 4F464620202020202020
0279+  08BB 546573743A20		.db     "Test: 1KHz LEFT "
0279+  08C1 314B487A204C45465420
0280+  08CB 546573743A20		.db     "Test: 1KHz RIGHT"
0280+  08D1 314B487A205249474854
0281+  08DB 546573743A20		.db     "Test: 1KHz      "
0281+  08E1 314B487A202020202020
0282+  08EB             
0283+  08EB 536372616D62scramble_txt:   .db     "Scrambler:NORMAL"
0283+  08F1 6C65723A4E4F524D414C
0284+  08FB 536372616D62		.db     "Scrambler: OFF  "
0284+  0901 6C65723A204F46462020
0285+  090B 536372616D62		.db     "Scrambler:SECRET"
0285+  0911 6C65723A534543524554
0286+  091B             
0287+  091B             
0288+  091B             ;----------------------------------[ end of file "-----------------------------------------
0289+  091B             
0290+  091B             
0291+  091B             	
0789   091B             #include "iic.h"
0001+  091B             ;////[ IIC.H ]/////////////////////////////////////////////////////////////////
0002+  091B             ;  Routines om IIC IC's aan te sturen.
0003+  091B             ;  Geschreven door Willem, Werner, Gerbert, Bert enz. enz. enz.
0004+  091B             ;  Dit zijn DE routines, betere zijn er niet !
0005+  091B             ;  Laatste datum: 10-2-1996
0006+  091B             ;
0007+  091B             ;  Als je deze routines gebruikt wordt voor SDA en SCL P1.5 en P1.6 genomen.
0008+  091B             ;  Als je andere pootjes wilt gebruiken moet dat in het hoofdprogramma 
0009+  091B             ;  aangegeven worden:
0010+  091B             ;  #DEFINE  SDA  095H    ; P1.5 is SDA
0011+  091B             ;  #DEFINE  SCL  096H    ; P1.6 is SCL
0012+  091B             ;
0013+  091B             ;  IIC.H bevat de volgende routines:
0014+  091B             ;
0015+  091B             ;  IIC_START:   Genereert een startconditie op de IIC-bus. Carry is clear 
0016+  091B             ;               als het goed is en set bij fouten (sda/scl niet hoog,
0017+  091B             ;               bv door kortsluiting).
0018+  091B             ;
0019+  091B             ;  IIC_STOP:    Genereert een stopconditie op de IIC-bus.
0020+  091B             ;
0021+  091B             ;  IIC_WRITE:   Schrijft het byte in de accu naar de IIC-bus en controleert
0022+  091B             ;               de acknowledge. Als de acknowledge klopt is de carry gecleared
0023+  091B             ;               en bij fouten is ie geset.
0024+  091B             ;
0025+  091B             ;  IIC_READ:    Lees een byte in via de IIC-bus, ZONDER een acknowledge te geven
0026+  091B             ;               Het byte komt terug in de accu.
0027+  091B             ;
0028+  091B             ;  IIC_ACK:     Geeft een acknowledge. Aanroepen na een IICREAD opdracht.
0029+  091B             ;
0030+  091B             ;  IIC_NOACK:   Geeft een negatieve acknowledge (SDA hoog). Aanroepen na een
0031+  091B             ;               IICREAD opdracht.
0032+  091B             ;////////////////////////////////////////////////////////////////////////////
0033+  091B             
0034+  091B             
0035+  091B~            #IFNDEF SDA
0036+  091B~              #DEFINE SDA 095H
0037+  091B             #ENDIF
0038+  091B             
0039+  091B~            #IFNDEF SCL
0040+  091B~              #DEFINE SCL 096H
0041+  091B             #ENDIF
0042+  091B             
0043+  091B             
0044+  091B             
0045+  091B             ;----------------------------------------------------------------
0046+  091B             IIC_WRITE:      ;schrijf het byte in de accu naar de IIC poort en
0047+  091B             		;check op een acknowledge.
0048+  091B             		;Gebruikte registers : geen.
0049+  091B             		;de routine gaat ervan uit dat SCL hoog is bij de aanroep.
0050+  091B             		;SDA maakt niet uit. Bij het verlaten is SCL hoog en SDA 
0051+  091B             		;laag (acknowledge van ontvanger).
0052+  091B             		;Als de acknowledge fout was is de carry GESET, anders
0053+  091B             		;is de carry gecleared.
0054+  091B             ;----------------------------------------------------------------
0055+  091B             
0056+  091B C0 F0       		PUSH    B               ;B even op de stack
0057+  091D 75 F0 08    		MOV     B,#8            ;teller voor aantal bits
0058+  0920 C2 B5       wriicm3:        CLR     SCL             ;maak de kloklijn laag
0059+  0922 33          		RLC     A               ;roteer de accu (met daarin de data) door de carry.
0060+  0923 40 04       		JC      wriicm1         ;spring als het een 1 is.
0061+  0925 C2 B4       		CLR     SDA             ;maak het SDA-bit laag (0)
0062+  0927 80 02       		SJMP    wriicm2
0063+  0929 D2 B4       wriicm1:        SETB    SDA             ;maak SDA hoog (1)
0064+  092B 12 09 A9    wriicm2:        LCALL   WACHT           ;klok moet minimaal 4,7 usec laag zijn
0065+  092E D2 B5       		SETB    SCL             ;klok hoog
0066+  0930 12 09 A9    		LCALL   WACHT           ;klok moet minimaal 4 usec hoog
0067+  0933 D5 F0 EA    		DJNZ    B,wriicm3       ;alle bits al gehad ?
0068+  0936 C2 B5       		CLR     SCL             ;klok laag
0069+  0938 D2 B4       		SETB    SDA             ;sda hoog
0070+  093A 12 09 A9    		LCALL   WACHT           ;wacht minimaal 3,7 us tot IC z'n ack. klaar heeft.
0071+  093D D2 B5       		SETB    SCL             ;klok weer hoog         
0072+  093F C3          		CLR     C
0073+  0940 30 B4 01    		JNB     SDA,noerror     ;spring als er een acknowledge is (ack=0)
0074+  0943 D3          		SETB    C               ;foutmelding -> geen acknowledge!
0075+  0944 12 09 A9    noerror:        LCALL   WACHT           ;klok moet minimaal 4,7 usec hoog zijn!
0076+  0947 D0 F0       		POP     B
0077+  0949 22          		RET
0078+  094A             
0079+  094A             
0080+  094A             ;----------------------------------------------------------------
0081+  094A             IIC_READ:       ;lees een byte in in de accu en verstuur een acknowledge.
0082+  094A             		;Gebruikte registers : R0
0083+  094A             		;de routine gaat ervan uit dat SCL hoog is bij de aanroep.
0084+  094A             		;SDA maakt niet uit.
0085+  094A             		;Bij het verlaten is SCL hoog en SDA laag (acknowledge)
0086+  094A             ;----------------------------------------------------------------
0087+  094A             
0088+  094A C0 F0       		PUSH	B				
0089+  094C 75 F0 08    		MOV     B,#8            ;teller voor aantal bits
0090+  094F 74 00       		MOV     A,#0
0091+  0951 C2 B5       		CLR     SCL             ;altijd eerst SCL laag voor je iets met SDA doet.
0092+  0953 D2 B4       		SETB    SDA             ;voor de zekerheid (moest al gebeurd zijn)
0093+  0955             
0094+  0955 C2 B5       rdiicm2:        CLR     SCL             ;maak de kloklijn laag
0095+  0957 12 09 A9    		LCALL   WACHT           ;geef device gelegenheid data op SDA te zetten (min 4,7 us)
0096+  095A D2 B5       		SETB    SCL             ;klok hoog
0097+  095C 12 09 A9    		LCALL   WACHT           ;wacht even
0098+  095F D3          		SETB    C
0099+  0960 20 B4 01    		JB      SDA,rdiicm1     ;spring als SDA hoog is
0100+  0963 C3          		CLR     C
0101+  0964 33          rdiicm1:        RLC     A               ;schuif bit in de accu
0102+  0965 D5 F0 ED    		DJNZ    B,rdiicm2       ;alle bits al gehad ?
0103+  0968             
0104+  0968 C2 B5       		CLR     SCL             ;klok laag
0105+  096A 00          		NOP
0106+  096B 00          		NOP                     ;even wat tijd rekken om een data-hold tijd van enkele uS te maken
0107+  096C D0 F0       		POP	B
0108+  096E 22          		RET
0109+  096F             
0110+  096F             ;------------------------------------------------------------------
0111+  096F             IIC_START:      ;genereert een startconditie op de IIC bus
0112+  096F             ;------------------------------------------------------------------
0113+  096F 30 B4 0D    		JNB     SDA,iicstm1
0114+  0972 30 B5 0A    		JNB     SCL,iicstm1     ;spring als SDA of SCL niet hoog zijn
0115+  0975             		; sda en scl zijn beide hoog.
0116+  0975 12 09 A9    		LCALL   WACHT           ;voor een start moet klok minimaal 4 usec hoog zijn
0117+  0978 C2 B4       		CLR     SDA             ;SDA laag terwijl SCL hoog is
0118+  097A             					; -> dit is de startconditie
0119+  097A 12 09 A9    		LCALL   WACHT           ; ik mag nu 4 usec niets doen.
0120+  097D C3          		CLR     C
0121+  097E 22          		RET
0122+  097F             
0123+  097F D3          iicstm1:        SETB    C               ;fout : SDA/SCL error (kortsluiting?)
0124+  0980 22          		RET
0125+  0981             
0126+  0981             
0127+  0981             ;--------------------------------------------------------------------
0128+  0981             IIC_STOP:       ;genereert een stop-conditie. Er wordt uitgegaan van
0129+  0981             		;een datalijn die hoog is en een klok die hoog is.
0130+  0981             ;--------------------------------------------------------------------
0131+  0981             
0132+  0981 C2 B5       		CLR     SCL                             
0133+  0983 C2 B4       		CLR     SDA             ;data en klok laag
0134+  0985 12 09 A9    		LCALL   WACHT
0135+  0988 D2 B5       		SETB    SCL             ;klok hoog
0136+  098A 12 09 A9    		LCALL   WACHT           ;wacht minimaal 4,7 usec
0137+  098D D2 B4       		SETB    SDA             ;data hoog (verandering van data tijdens klok = start/stop)
0138+  098F 12 09 A9    		LCALL   WACHT           ;wacht minimaal 4 usec
0139+  0992 22          		RET
0140+  0993             
0141+  0993             ;----------------------------------------------------------------------
0142+  0993             IIC_ACK:        
0143+  0993             		;geef een acknowledge. (SDA laag maken)
0144+  0993             ;-----------------------------------------------------------------------
0145+  0993             
0146+  0993 D2 B4       		SETB    SDA             ;sda hoog (neg. acknowledge, maar moet bij eeprom)
0147+  0995 12 09 A9    		LCALL   WACHT
0148+  0998 D2 B5       		SETB    SCL             ;klok ook hoog
0149+  099A 12 09 A9    		LCALL   WACHT
0150+  099D 22          		RET
0151+  099E             
0152+  099E             
0153+  099E             
0154+  099E             ;----------------------------------------------------------------------
0155+  099E             IIC_NOACK:      
0156+  099E             		;geef een negatieve acknowledge. (SDA hoog maken)
0157+  099E             ;-----------------------------------------------------------------------
0158+  099E             
0159+  099E D2 B4       		SETB    SDA             ;sda hoog (neg. acknowledge, maar moet bij eeprom)
0160+  09A0 12 09 A9    		LCALL   WACHT
0161+  09A3 D2 B5       		SETB    SCL             ;klok ook hoog
0162+  09A5 12 09 A9    		LCALL   WACHT
0163+  09A8 22          		RET
0164+  09A9             
0165+  09A9             
0166+  09A9             
0167+  09A9             
0168+  09A9             ;--------------------------------------------------------------------
0169+  09A9             WACHT:          ;wacht enkele uS.
0170+  09A9             		;wordt gebruikt door alle IIC routines !
0171+  09A9             ;--------------------------------------------------------------------
0172+  09A9             
0173+  09A9             ;               PUSH    A
0174+  09A9             ;               MOV     A,#5
0175+  09A9             ;wachtm1:       DJNZ    A,wachtm1       ;tel af.;
0176+  09A9             ;               POP     A
0177+  09A9             
0178+  09A9 22          		RET
0179+  09AA             
0180+  09AA             
0790   09AA             #include "eeprom.h"
0001+  09AA             ;//////[ EEPROM.H ]//////////////////////////////////////////////////////////////////////
0002+  09AA             ;
0003+  09AA             ;  Routines om EEPROM's uit te lezen en te beschrijven. 
0004+  09AA             ;  Getest met de SDA2526.
0005+  09AA             ;  Werkt niet met de SDA2546.
0006+  09AA             ; 
0007+  09AA             ;  Geschreven door Willem, Werner, Gerbert, Bert enz. enz. enz.
0008+  09AA             ;  Laatste datum : 6-2-1996
0009+  09AA             ;
0010+  09AA             ;  Bij EEPROM.H is ook IIC.H nodig. Bovendien moet in het hoofdprogramma het 
0011+  09AA             ;  slave-adres van de EEPROM worden gegeven, bijvoorbeeld zo:
0012+  09AA             ;  #DEFINE  EEPRWR	10100000b	;adres van de EEPROM (schrijven)
0013+  09AA             ;  #DEFINE  EEPRRD	10100001b	;adres van de EEPROM (lezen)
0014+  09AA             ;  Als geen adres wordt gegeven, wordt 10100000b gebruikt (alle adrespootjes
0015+  09AA             ;  aan massa).
0016+  09AA             ;
0017+  09AA             ;  Om de eeprom van het begin af goed te laten werken moet men eerst een
0018+  09AA             ;  keer iets gelezen hebben.
0019+  09AA             ;  Voordat je wilt schrijven moet men eerst altijd lezen.
0020+  09AA             ;
0021+  09AA             ;  EEPROM.H library bevat de volgende routines:
0022+  09AA             ;
0023+  09AA             ;  READEEPROM:  Lees een byte uit de EEPROM. Het adres dat je wil lezen moet in
0024+  09AA             ;		B staan en de gelezen data komt in A terug.
0025+  09AA             ;
0026+  09AA             ;  WREEPROM:	Schrijf een byte naar de EEPROM. Het adres waar je naar toe wil
0027+  09AA             ;		schrijven moet in B staan, de data die er in moet in A.
0028+  09AA             ;
0029+  09AA             ;////////////////////////////////////////////////////////////////////////////
0030+  09AA             
0031+  09AA~            #IFNDEF EEPRWR
0032+  09AA~              #DEFINE    EEPRWR      10100000b
0033+  09AA             #ENDIF
0034+  09AA             
0035+  09AA~            #IFNDEF EEPRRD
0036+  09AA~              #DEFINE EEPRRD 10100001b
0037+  09AA             #ENDIF
0038+  09AA             
0039+  09AA             
0040+  09AA             
0041+  09AA             ;----------------------------------------------------------------
0042+  09AA             READEEPROM:
0043+  09AA             		;lees een byte uit de eeprom en zet dit in de accu
0044+  09AA             		;het adres dat gelezen moet worden moet in B staan.
0045+  09AA             		;B wordt niet aangetast
0046+  09AA             		;
0047+  09AA             		;LET OP ! Na het inschakelen moet eerst gelezen worden
0048+  09AA             		;voordat je mag schrijven!
0049+  09AA             		;
0050+  09AA             	       	;Gebruikte registers: accu, B
0051+  09AA             ;-----------------------------------------------------------------
0052+  09AA             
0053+  09AA 12 09 6F    		LCALL   IIC_START
0054+  09AD 74 A0       		MOV     A,#EEPRWR
0055+  09AF 12 09 1B    		LCALL   IIC_WRITE	;schrijf slave adres
0056+  09B2 E5 F0       		MOV     A,B             ;in B geef ik het woordadres mee
0057+  09B4 12 09 1B    		LCALL   IIC_WRITE	;schrijf woord adres
0058+  09B7             
0059+  09B7             		;klok is hoog, data is laag (acknowledge EEPROM)
0060+  09B7 C2 B5       		CLR     SCL		;maak klok laag
0061+  09B9 12 09 A9    		LCALL   WACHT		;wacht minimaal 4usec.
0062+  09BC D2 B5       		SETB    SCL		;maak klok weer hoog.
0063+  09BE             
0064+  09BE 12 09 6F    		LCALL   IIC_START       ;opnieuw startconditie
0065+  09C1 74 A1       		MOV     A,#EEPRRD
0066+  09C3 12 09 1B    		LCALL   IIC_WRITE	;slave adres schrijven
0067+  09C6 12 09 4A    		LCALL   IIC_READ        ;lees eerste byte(lage deel PLL-deeltal) 
0068+  09C9 12 09 9E    		LCALL	IIC_NOACK	;geef een negatieve acknowledge
0069+  09CC 12 09 81    		LCALL   IIC_STOP
0070+  09CF 22          		RET
0071+  09D0             
0072+  09D0             
0073+  09D0             
0074+  09D0             
0075+  09D0             ;-------------------------------------------------------------
0076+  09D0             WREEPROM:       ;Schrijf het byte in de accu naar de EEPROM 
0077+  09D0             		;adres moet in B staan
0078+  09D0             		;De accu wordt aangetast.
0079+  09D0             ;--------------------------------------------------------------
0080+  09D0             		
0081+  09D0 C0 E0       		PUSH	ACC		;zet accu, met daarin de te schrijven
0082+  09D2             					;data, even weg
0083+  09D2 12 09 6F    		LCALL   IIC_START
0084+  09D5 74 A0       		MOV     A,#EEPRWR
0085+  09D7 12 09 1B         		LCALL   IIC_WRITE	;schrijf slave-adres
0086+  09DA E5 F0               	MOV     A,B
0087+  09DC 12 09 1B    		LCALL   IIC_WRITE	;schrijf woord-adres
0088+  09DF D0 E0       		POP	ACC		;haal accu met de data weer terug
0089+  09E1 12 09 1B    		LCALL   IIC_WRITE       ;schrijf data naar eeprom
0090+  09E4 12 09 81    		LCALL   IIC_STOP
0091+  09E7             
0092+  09E7             		;wacht 40 ms om het schrijven af te maken
0093+  09E7 C0 F0       		PUSH	B
0094+  09E9 74 28       		MOV	A,#40		;aantal milliseconden (minimaal 30 volgens Snor)
0095+  09EB 75 F0 F9    wrepm9:		MOV	B,#249
0096+  09EE 00          wrepm8:		NOP			; 1 usec
0097+  09EF 00          		NOP			; 1 usec
0098+  09F0 D5 F0 FB    		DJNZ	B,wrepm8	; 2 usec
0099+  09F3 D5 E0 F5    		DJNZ	ACC,wrepm9
0100+  09F6 D0 F0       		POP	B
0101+  09F8 22          		RET
0102+  09F9             
0103+  09F9             ;////////////////////////////////////////////////////////////////////////////
0104+  09F9             ;//////// vanaf hier zou moeten werken bij 24C02 en PCF 8582 ////////////////
0105+  09F9             ;////////////////////////////////////////////////////////////////////////////
0106+  09F9             		;ga kijken of het IC al klaar is met schrijven
0107+  09F9 C0 F0       		PUSH	B		;bewaar B
0108+  09FB 75 F0 64    		MOV	B,#100		;probeer het 100 keer maximaal
0109+  09FE 12 09 6F    wrepm3:		LCALL	IIC_START
0110+  0A01 74 A1       		MOV	A,#EEPRRD
0111+  0A03 12 09 1B    		LCALL	IIC_WRITE	;schrijf slave adres (read mode)
0112+  0A06 50 09       		JNC	wrepm4		;klaar !
0113+  0A08 12 09 81    		LCALL	IIC_STOP
0114+  0A0B D5 F0 F0    		DJNZ	B,wrepm3
0115+  0A0E D0 F0       		POP	B		;als hij hier komt is het IC stuk
0116+  0A10 22          		RET			;(meer dan 100x geprobeerd)
0117+  0A11             
0118+  0A11 12 09 81    wrepm4:		LCALL	IIC_STOP
0119+  0A14 D0 F0       		POP	B		;B weer terug
0120+  0A16 22          		RET			;klaar !
0121+  0A17             
0791   0A17             
0792   0A17             ;---- LCA config data ----
0793   0A17             #include "lca1.asm"       
0001+  0A17             ;-----------------------------------------------
0002+  0A17             ;   File   LCA1.ASM
0003+  0A17             ;
0004+  0A17             ;   Xilinx LCA y:\LCA1.lca 3030PC84
0005+  0A17             ;   File y:\LCA1.rbt
0006+  0A17             ;   Sun Nov 11 15:46:33 2001
0007+  0A17             ;   Sun Nov 11 15:46:33 2001
0008+  0A17             ;   Source
0009+  0A17             ;   Version
0010+  0A17             ;   Produced by makebits version 4.31
0011+  0A17             ;   Length: 0ADAh
0012+  0A17             
0013+  0A17             LCA1:
0014+  0A17             
0015+  0A17 FF20056CCF27    .db   0FFh,020h,005h,06Ch,0CFh,027h,0EBh,0FBh,0FFh,0DBh,0DDh,0FBh,0EFh,03Fh,02Dh,02Fh
0015+  0A1D EBFBFFDBDDFBEF3F2D2F
0016+  0A27 F68EEE6FECEC    .db   0F6h,08Eh,0EEh,06Fh,0ECh,0ECh,0B7h,077h,077h,0F2h,077h,0FFh,066h,01Ah,01Eh,036h
0016+  0A2D B77777F277FF661A1E36
0017+  0A37 3E3F0F0F1F1F    .db   03Eh,03Fh,00Fh,00Fh,01Fh,01Fh,01Bh,0F1h,0BFh,0FFh,0BFh,0FFh,07Eh,07Fh,0FDh,0FFh
0017+  0A3D 1BF1BFFFBFFF7E7FFDFF
0018+  0A47 FBFFBF3DE7F5    .db   0FBh,0FFh,0BFh,03Dh,0E7h,0F5h,0EDh,0EDh,0E6h,0FEh,0F3h,07Eh,064h,0FBh,0F5h,03Fh
0018+  0A4D EDEDE6FEF37E64FBF53F
0019+  0A57 FFDFFF7FFFAD    .db   0FFh,0DFh,0FFh,07Fh,0FFh,0ADh,0FFh,0FFh,0DFh,0FFh,05Dh,07Fh,063h,07Dh,035h,05Eh
0019+  0A5D FFFFDFFF5D7F637D355E
0020+  0A67 BBB5B6A9B3F3    .db   0BBh,0B5h,0B6h,0A9h,0B3h,0F3h,0F7h,0F7h,0B3h,0B7h,0F7h,07Bh,0FBh,0FBh,0EBh,0FBh
0020+  0A6D F7F7B3B7F77BFBFBEBFB
0021+  0A77 BF7EBFBCBFFB    .db   0BFh,07Eh,0BFh,0BCh,0BFh,0FBh,0FEh,05Fh,04Ch,04Fh,0EFh,057h,0F1h,0FBh,0FFh,0FDh
0021+  0A7D FE5F4C4FEF57F1FBFFFD
0022+  0A87 FDFBFDFFFFFB    .db   0FDh,0FBh,0FDh,0FFh,0FFh,0FBh,0EFh,03Fh,07Ch,0FCh,0FCh,0FCh,0F8h,0FEh,07Eh,07Eh
0022+  0A8D EF3F7CFCFCFCF8FE7E7E
0023+  0A97 7E6E6FF7EE3F    .db   07Eh,06Eh,06Fh,0F7h,0EEh,03Fh,0BFh,0BFh,0FFh,0BFh,0DFh,0DFh,07Eh,0FAh,0F7h,07Fh
0023+  0A9D BFBFFFBFDFDF7EFAF77F
0024+  0AA7 FEFEFFF7FF7F    .db   0FEh,0FEh,0FFh,0F7h,0FFh,07Fh,07Fh,0FDh,0FDh,0FFh,0F7h,0BFh,0FFh,0FDh,0FFh,0FEh
0024+  0AAD 7FFDFDFFF7BFFFFDFFFE
0025+  0AB7 FFFFFEFFFDFF    .db   0FFh,0FFh,0FEh,0FFh,0FDh,0FFh,00Fh,076h,076h,03Fh,0EEh,039h,0FBh,03Dh,0BBh,09Fh
0025+  0ABD 0F76763FEE39FB3DBB9F
0026+  0AC7 F873F9FBE73F    .db   0F8h,073h,0F9h,0FBh,0E7h,03Fh,0DFh,0FBh,0E1h,0FDh,0FEh,0DBh,0BFh,06Dh,0FFh,0FFh
0026+  0ACD DFFBE1FDFEDBBF6DFFFF
0027+  0AD7 EF9DCF8E139F    .db   0EFh,09Dh,0CFh,08Eh,013h,09Fh,0DFh,097h,0F7h,0F5h,0BFh,0F7h,0FFh,0A7h,0FFh,0C5h
0027+  0ADD DF97F7F5BFF7FFA7FFC5
0028+  0AE7 FFFBFFEF776E    .db   0FFh,0FBh,0FFh,0EFh,077h,06Eh,05Ah,067h,07Eh,07Fh,0A6h,03Bh,0F3h,0BFh,0BDh,0F3h
0028+  0AED 5A677E7FA63BF3BFBDF3
0029+  0AF7 DFEFEF3A9FFD    .db   0DFh,0EFh,0EFh,03Ah,09Fh,0FDh,0E1h,07Ch,0FDh,0BDh,0FFh,03Bh,03Eh,02Bh,0FFh,039h
0029+  0AFD E17CFDBDFF3B3E2BFF39
0030+  0B07 B79C7FF9DF9F    .db   0B7h,09Ch,07Fh,0F9h,0DFh,09Fh,075h,07Dh,0FFh,0B5h,0FFh,0EFh,0FFh,0E6h,0FEh,0FFh
0030+  0B0D 757DFFB5FFEFFFE6FEFF
0031+  0B17 FEC75D7DFFFF    .db   0FEh,0C7h,05Dh,07Dh,0FFh,0FFh,0BDh,072h,0AEh,0BBh,0FFh,0EFh,0DAh,0F5h,0D7h,097h
0031+  0B1D BD72AEBBFFEFDAF5D797
0032+  0B27 D9FFD7AFEDFF    .db   0D9h,0FFh,0D7h,0AFh,0EDh,0FFh,0BFh,0DFh,0DFh,07Fh,07Fh,035h,099h,0BFh,03Fh,0DEh
0032+  0B2D BFDFDF7F7F3599BF3FDE
0033+  0B37 DEDADECFF5FD    .db   0DEh,0DAh,0DEh,0CFh,0F5h,0FDh,07Fh,07Fh,03Fh,0FFh,0BFh,0DEh,0FEh,0DFh,0FFh,0EFh
0033+  0B3D 7F7F3FFFBFDEFEDFFFEF
0034+  0B47 55D9DECFFDD6    .db   055h,0D9h,0DEh,0CFh,0FDh,0D6h,0EAh,0EFh,0EFh,0EFh,0FAh,0F5h,097h,0DBh,0D7h,0FFh
0034+  0B4D EAEFEFEFFAF597DBD7FF
0035+  0B57 D5E8AAFEFEFF    .db   0D5h,0E8h,0AAh,0FEh,0FEh,0FFh,0AFh,07Fh,036h,03Dh,05Fh,0FEh,03Fh,07Eh,06Fh,0ABh
0035+  0B5D AF7F363D5FFE3F7E6FAB
0036+  0B67 AFAB73F7E7DE    .db   0AFh,0ABh,073h,0F7h,0E7h,0DEh,0F7h,09Fh,0F7h,0A1h,0BDh,0B9h,0DAh,0F7h,03Fh,0DAh
0036+  0B6D F79FF7A1BDB9DAF73FDA
0037+  0B77 D95FBDFF7E5F    .db   0D9h,05Fh,0BDh,0FFh,07Eh,05Fh,09Fh,09Dh,09Fh,0F7h,077h,0E5h,0D7h,073h,0E5h,0B1h
0037+  0B7D 9F9D9FF777E5D773E5B1
0038+  0B87 F1DBDBF9CF7F    .db   0F1h,0DBh,0DBh,0F9h,0CFh,07Fh,07Fh,07Dh,07Bh,0BEh,0B7h,07Ah,07Fh,0EBh,0BFh,0FBh
0038+  0B8D 7F7D7BBEB77A7FEBBFFB
0039+  0B97 F5F7F7D7FB55    .db   0F5h,0F7h,0F7h,0D7h,0FBh,055h,0F7h,0E1h,0F8h,0F9h,0F9h,0EFh,037h,0F7h,0F9h,0FBh
0039+  0B9D F7E1F8F9F9EF37F7F9FB
0040+  0BA7 7D37383B9BBF    .db   07Dh,037h,038h,03Bh,09Bh,0BFh,0BBh,0F7h,0BEh,0FDh,0D7h,0FBh,0E7h,0D3h,0E7h,0FBh
0040+  0BAD BBF7BEFDD7FBE7D3E7FB
0041+  0BB7 FFFFCF7E3DF9    .db   0FFh,0FFh,0CFh,07Eh,03Dh,0F9h,02Eh,0F4h,0DAh,01Ch,00Ah,03Dh,09Fh,09Eh,0F6h,0FDh
0041+  0BBD 2EF4DA1C0A3D9F9EF6FD
0042+  0BC7 FFD75786F767    .db   0FFh,0D7h,057h,086h,0F7h,067h,0FCh,07Fh,0FFh,0DFh,06Dh,0B7h,0DDh,0BFh,034h,0BEh
0042+  0BCD FC7FFFDF6DB7DDBF34BE
0043+  0BD7 5E1B9FD79FF7    .db   05Eh,01Bh,09Fh,0D7h,09Fh,0F7h,0F3h,0FFh,0DFh,0F6h,0CFh,0E3h,0E3h,0E3h,0FBh,0DBh
0043+  0BDD F3FFDFF6CFE3E3E3FBDB
0044+  0BE7 EF6D655A7D7C    .db   0EFh,06Dh,065h,05Ah,07Dh,07Ch,04Eh,036h,036h,07Fh,0BFh,0BFh,0F3h,0FBh,0E6h,0A3h
0044+  0BED 4E36367FBFBFF3FBE6A3
0045+  0BF7 D9CBE5F5FCDD    .db   0D9h,0CBh,0E5h,0F5h,0FCh,0DDh,079h,0FFh,03Eh,0FEh,0FEh,07Dh,03Eh,072h,03Eh,03Fh
0045+  0BFD 79FF3EFEFE7D3E723E3F
0046+  0C07 F5D7BB75B5FD    .db   0F5h,0D7h,0BBh,075h,0B5h,0FDh,0ADh,04Dh,0C5h,0E3h,0E3h,0C6h,0FEh,0FCh,0E7h,05Fh
0046+  0C0D AD4DC5E3E3C6FEFCE75F
0047+  0C17 7DF93F757FBC    .db   07Dh,0F9h,03Fh,075h,07Fh,0BCh,0BFh,0BBh,0FFh,0ECh,0F5h,0D9h,0EFh,0DFh,0DFh,0DFh
0047+  0C1D BFBBFFECF5D9EFDFDFDF
0048+  0C27 EF6EEFFFFFEF    .db   0EFh,06Eh,0EFh,0FFh,0FFh,0EFh,07Fh,0BDh,0BFh,09Fh,095h,09Eh,0DEh,0DFh,0CEh,0CCh
0048+  0C2D 7FBDBF9F959EDEDFCECC
0049+  0C37 DFF5FDFCFFFF    .db   0DFh,0F5h,0FDh,0FCh,0FFh,0FFh,0FFh,0FFh,0BFh,0FFh,0FFh,0FFh,0EFh,05Dh,0DEh,0D5h
0049+  0C3D FFFFBFFFFFFFEF5DDED5
0050+  0C47 F5FDD6FCFEEF    .db   0F5h,0FDh,0D6h,0FCh,0FEh,0EFh,0FBh,0FEh,0F5h,0F5h,0F7h,0D7h,0F7h,0D1h,0FBh,0EBh
0050+  0C4D FBFEF5F5F7D7F7D1FBEB
0051+  0C57 FAFFFFAF7F5F    .db   0FAh,0FFh,0FFh,0AFh,07Fh,05Fh,03Eh,05Ch,01Ch,057h,0EEh,08Eh,06Fh,0AFh,0AFh,073h
0051+  0C5D 3E5C1C57EE8E6FAFAF73
0052+  0C67 EBF766DD4DFF    .db   0EBh,0F7h,066h,0DDh,04Dh,0FFh,025h,0BFh,03Ah,0FBh,077h,027h,07Eh,0DAh,07Dh,0FCh
0052+  0C6D 25BF3AFB77277EDA7DFC
0053+  0C77 3FDE5FDF9F9B    .db   03Fh,0DEh,05Fh,0DFh,09Fh,09Bh,0F7h,057h,0DFh,0E3h,05Fh,0C7h,0EAh,0E3h,0C7h,0FFh
0053+  0C7D F757DFE35FC7EAE3C7FF
0054+  0C87 DBEF6F79F9FF    .db   0DBh,0EFh,06Fh,079h,0F9h,0FFh,0BDh,07Fh,0BEh,03Eh,07Dh,0CFh,0DDh,0F7h,0DFh,067h
0054+  0C8D BD7FBE3E7DCFDDF7DF67
0055+  0C97 D7FFC3F9E1DD    .db   0D7h,0FFh,0C3h,0F9h,0E1h,0DDh,0D8h,0FDh,0FFh,07Fh,0F7h,0F9h,055h,0FCh,07Fh,0AAh
0055+  0C9D D8FDFF7FF7F955FC7FAA
0056+  0CA7 3FFFBFDFF7E7    .db   03Fh,0FFh,0BFh,0DFh,0F7h,0E7h,0F7h,0D7h,0E7h,0C6h,07Fh,0C7h,0E7h,0FDh,07Fh,0F7h
0056+  0CAD F7D7E7C67FC7E7FD7FF7
0057+  0CB7 1D3C3C3C75D5    .db   01Dh,03Ch,03Ch,03Ch,075h,0D5h,01Ah,01Ah,0BCh,07Ch,09Fh,0F2h,06Fh,04Fh,0CDh,0CBh
0057+  0CBD 1A1ABC7C9FF26F4FCDCB
0058+  0CC7 DFA6E3E9E7CE    .db   0DFh,0A6h,0E3h,0E9h,0E7h,0CEh,0DFh,07Dh,0EFh,0F4h,0ACh,0FDh,0FEh,0FBh,0FCh,0F3h
0058+  0CCD DF7DEFF4ACFDFEFBFCF3
0059+  0CD7 FFFFF7E5B7C6    .db   0FFh,0FFh,0F7h,0E5h,0B7h,0C6h,0C3h,096h,0FBh,05Fh,069h,07Fh,0FBh,0FFh,075h,0FFh
0059+  0CDD C396FB5F697FFBFF75FF
0060+  0CE7 6C3F69FBBEAF    .db   06Ch,03Fh,069h,0FBh,0BEh,0AFh,0BEh,0BBh,077h,0F3h,0EEh,0FEh,0CBh,0FFh,0DFh,02Fh
0060+  0CED BEBB77F3EEFECBFFDF2F
0061+  0CF7 EFDF6FD7BF3D    .db   0EFh,0DFh,06Fh,0D7h,0BFh,03Dh,07Ch,0BCh,0AFh,035h,06Ah,05Eh,0BEh,03Eh,0B6h,03Fh
0061+  0CFD 7CBCAF356A5EBE3EB63F
0062+  0D07 74EDCDCDFDDF    .db   074h,0EDh,0CDh,0CDh,0FDh,0DFh,0F7h,0EAh,0E3h,0EAh,0E7h,0E7h,055h,0F1h,077h,0B5h
0062+  0D0D F7EAE3EAE7E755F177B5
0063+  0D17 7D7BBBBEBFBB    .db   07Dh,07Bh,0BBh,0BEh,0BFh,0BBh,09Eh,0F5h,0DFh,0DBh,0FFh,0D7h,0D7h,0EBh,0F7h,0EDh
0063+  0D1D 9EF5DFDBFFD7D7EBF7ED
0064+  0D27 F7E9DF7DBDBF    .db   0F7h,0E9h,0DFh,07Dh,0BDh,0BFh,097h,01Fh,03Fh,09Eh,0DCh,0DEh,0DFh,09Fh,074h,0FDh
0064+  0D2D 971F3F9EDCDEDF9F74FD
0065+  0D37 FDFFFFBFFFDE    .db   0FDh,0FFh,0FFh,0BFh,0FFh,0DEh,0DFh,0FEh,0DFh,0EFh,052h,09Ah,09Fh,09Dh,09Dh,09Ah
0065+  0D3D DFFEDFEF529A9F9D9D9A
0066+  0D47 CCCBCCCECEF5    .db   0CCh,0CBh,0CCh,0CEh,0CEh,0F5h,053h,097h,0FFh,0D7h,0D7h,0FBh,0EBh,0FBh,0CBh,0FBh
0066+  0D4D 5397FFD7D7FBEBFBCBFB
0067+  0D57 D776DADC5F5E    .db   0D7h,076h,0DAh,0DCh,05Fh,05Eh,01Fh,06Eh,02Ch,0EEh,00Ch,00Fh,073h,0D5h,0D5h,086h
0067+  0D5D 1F6E2CEE0C0F73D5D586
0068+  0D67 FBD3E5E5E9E1    .db   0FBh,0D3h,0E5h,0E5h,0E9h,0E1h,0C5h,0F7h,03Eh,0DDh,0DCh,05Ah,01Dh,0DEh,0EFh,0AEh
0068+  0D6D C5F73EDDDC5A1DDEEFAE
0069+  0D77 EFEB6FF5D7E3    .db   0EFh,0EBh,06Fh,0F5h,0D7h,0E3h,043h,0F3h,0E3h,0BBh,0FAh,08Bh,0F9h,0F3h,0EFh,07Eh
0069+  0D7D 43F3E3BBFA8BF9F3EF7E
0070+  0D87 FEFCBCFAFBDD    .db   0FEh,0FCh,0BCh,0FAh,0FBh,0DDh,03Fh,0BFh,05Fh,0BDh,0F7h,0D7h,0D7h,0C7h,0D1h,017h
0070+  0D8D 3FBF5FBDF7D7D7C7D117
0071+  0D97 2BEEFFEFBFEF    .db   02Bh,0EEh,0FFh,0EFh,0BFh,0EFh,076h,095h,07Ch,07Ch,0FDh,07Eh,01Eh,0FCh,07Eh,0BEh
0071+  0D9D 76957C7CFD7E1EFC7EBE
0072+  0DA7 A973D6EF8CC7    .db   0A9h,073h,0D6h,0EFh,08Ch,0C7h,0E7h,0F3h,0F7h,0E3h,0B7h,0EBh,077h,03Dh,0EFh,07Bh
0072+  0DAD E7F3F7E3B7EB773DEF7B
0073+  0DB7 2F6B37FC9AFE    .db   02Fh,06Bh,037h,0FCh,09Ah,0FEh,0BFh,09Ah,0F6h,0D5h,05Ah,0FFh,0FBh,09Fh,0EFh,0EEh
0073+  0DBD BF9AF6D55AFFFB9FEFEE
0074+  0DC7 AFCC9FEF7DFD    .db   0AFh,0CCh,09Fh,0EFh,07Dh,0FDh,01Eh,017h,03Dh,0BEh,0DAh,0F8h,0F6h,0F7h,0EFh,0F7h
0074+  0DCD 1E173DBEDAF8F6F7EFF7
0075+  0DD7 DBF7F6B5FEF9    .db   0DBh,0F7h,0F6h,0B5h,0FEh,0F9h,0EBh,0EFh,0EFh,0FBh,0FFh,07Dh,077h,0D7h,0DFh,079h
0075+  0DDD EBEFEFFBFF7D77D7DF79
0076+  0DE7 FEF4BEBEBE3F    .db   0FEh,0F4h,0BEh,0BEh,0BEh,03Fh,0F3h,0D5h,05Bh,06Bh,0FBh,05Bh,0EDh,0EBh,0EEh,0ABh
0076+  0DED F3D55B6BFB5BEDEBEEAB
0077+  0DF7 E37F397D6FFF    .db   0E3h,07Fh,039h,07Dh,06Fh,0FFh,0FDh,0FEh,0FEh,0F6h,0FEh,0F6h,07Fh,075h,0DDh,0FDh
0077+  0DFD FDFEFEF6FEF67F75DDFD
0078+  0E07 FDF5D9EFEFEA    .db   0FDh,0F5h,0D9h,0EFh,0EFh,0EAh,0EEh,0E7h,0A7h,05Ch,0F5h,035h,077h,0F5h,07Eh,0BDh
0078+  0E0D EEE7A75CF53577F57EBD
0079+  0E17 7FBD7CBEF6DF    .db   07Fh,0BDh,07Ch,0BEh,0F6h,0DFh,0DFh,0DCh,0FFh,0DFh,06Eh,0EFh,0EFh,0EFh,0EFh,05Fh
0079+  0E1D DFDCFFDF6EEFEFEFEF5F
0080+  0E27 7D9FBD9597BF    .db   07Dh,09Fh,0BDh,095h,097h,0BFh,0DEh,0DEh,0CEh,0CAh,0DFh,075h,0FFh,0FDh,0F7h,0FFh
0080+  0E2D DEDECECADF75FFFDF7FF
0081+  0E37 BFFF7FBF3FFF    .db   0BFh,0FFh,07Fh,0BFh,03Fh,0FFh,0EFh,05Dh,08Dh,0FEh,04Fh,0DDh,0FEh,0FEh,0FCh,0FCh
0081+  0E3D EF5D8DFE4FDDFEFEFCFC
0082+  0E47 FEF6F3F6D7F7    .db   0FEh,0F6h,0F3h,0F6h,0D7h,0F7h,0B9h,0D7h,0ABh,0EBh,0EBh,0CBh,0F7h,0F7h,07Ch,07Fh
0082+  0E4D B9D7ABEBEBCBF7F77C7F
0083+  0E57 1F1F1D1EBE0F    .db   01Fh,01Fh,01Dh,01Eh,0BEh,00Fh,06Eh,00Eh,0B7h,073h,0C7h,0D6h,0FEh,0FDh,0DDh,0AFh
0083+  0E5D 6E0EB773C7D6FEFDDDAF
0084+  0E67 E76AE6ABF73C    .db   0E7h,06Ah,0E6h,0ABh,0F7h,03Ch,065h,0F9h,09Fh,0BFh,0BFh,0BEh,078h,0FEh,07Eh,0BFh
0084+  0E6D 65F99FBFBFBE78FE7EBF
0085+  0E77 F54FF3D377F5    .db   0F5h,04Fh,0F3h,0D3h,077h,0F5h,0FBh,0E7h,0F2h,0E7h,0E9h,0EFh,07Fh,0FBh,0FDh,0FFh
0085+  0E7D FBE7F2E7E9EF7FFBFDFF
0086+  0E87 FF7FBDFF7FFE    .db   0FFh,07Fh,0BDh,0FFh,07Fh,0FEh,0FDh,0F5h,0FFh,055h,053h,0BBh,0DBh,0EFh,0FFh,0AEh
0086+  0E8D FDF5FF5553BBDBEFFFAE
0087+  0E97 9BEFEF7F7D7F    .db   09Bh,0EFh,0EFh,07Fh,07Dh,07Fh,07Fh,0B5h,0F6h,0FFh,0FAh,09Bh,0BEh,0BDh,0F1h,07Fh
0087+  0E9D 7FB5F6FFFA9BBEBDF17F
0088+  0EA7 F7BF7EBFFFFB    .db   0F7h,0BFh,07Eh,0BFh,0FFh,0FBh,0F7h,0FFh,0EDh,0AFh,015h,0EEh,034h,077h,03Eh,039h
0088+  0EAD F7FFEDAF15EE34773E39
0089+  0EB7 9B7CB8FAF872    .db   09Bh,07Ch,0B8h,0FAh,0F8h,072h,0F6h,05Dh,0E3h,055h,04Ch,0FFh,0F6h,0ECh,0ABh,0F3h
0089+  0EBD F65DE3554CFFF6ECABF3
0090+  0EC7 FF5DBFBCBD0F    .db   0FFh,05Dh,0BFh,0BCh,0BDh,00Fh,0BFh,0BFh,096h,0FEh,0FCh,0DDh,0F7h,0CFh,0F7h,0C9h
0090+  0ECD BFBF96FEFCDDF7CFF7C9
0091+  0ED7 F7FBF9D3EFEC    .db   0F7h,0FBh,0F9h,0D3h,0EFh,0ECh,0EBh,0EFh,07Eh,07Fh,0ECh,07Dh,07Fh,06Ah,02Eh,07Eh
0091+  0EDD EBEF7E7FEC7D7F6A2E7E
0092+  0EE7 BAF6BFF2F3BB    .db   0BAh,0F6h,0BFh,0F2h,0F3h,0BBh,0C9h,0DBh,0FBh,0E3h,0EDh,06Ah,0AFh,0EDh,0FFh,03Eh
0092+  0EED C9DBFBE3ED6AAFEDFF3E
0093+  0EF7 757A7FFC7E7F    .db   075h,07Ah,07Fh,0FCh,07Eh,07Fh,03Ah,0F6h,0FEh,073h,075h,04Fh,06Dh,045h,0F1h,065h
0093+  0EFD 3AF6FE73754F6D45F165
0094+  0F07 E4F6EEEEE3E7    .db   0E4h,0F6h,0EEh,0EEh,0E3h,0E7h,05Fh,07Ch,0FFh,07Fh,03Dh,07Fh,0BCh,0BFh,0BEh,09Ch
0094+  0F0D 5F7CFF7F3D7FBCBFBE9C
0095+  0F17 BAF7DBDEDF59    .db   0BAh,0F7h,0DBh,0DEh,0DFh,059h,0DFh,077h,06Fh,0D5h,0EFh,0EFh,0EFh,03Fh,0B9h,09Dh
0095+  0F1D DF776FD5EFEFEF3FB99D
0096+  0F27 99BFBEDBCECE    .db   099h,0BFh,0BEh,0DBh,0CEh,0CEh,0CBh,0DFh,0F5h,0FFh,07Fh,0FFh,0FFh,0FCh,0BFh,0BFh
0096+  0F2D CBDFF5FF7FFFFFFCBFBF
0097+  0F37 FFFFBFEF55FA    .db   0FFh,0FFh,0BFh,0EFh,055h,0FAh,0D6h,0DEh,0D5h,0EEh,0EEh,0FEh,0EEh,0EAh,0EEh,0F4h
0097+  0F3D D6DED5EEEEFEEEEAEEF4
0098+  0F47 F7955194D7EF    .db   0F7h,095h,051h,094h,0D7h,0EFh,0EBh,0EFh,0FBh,0CAh,0EFh,07Ch,0DFh,01Ch,05Dh,05Fh
0098+  0F4D EBEFFBCAEF7CDF1C5D5F
0099+  0F57 5F9FEF0AEF0F    .db   05Fh,09Fh,0EFh,00Ah,0EFh,00Fh,073h,0E6h,07Dh,05Dh,09Eh,05Dh,0FFh,0DFh,062h,0EEh
0099+  0F5D 73E67D5D9E5DFFDF62EE
0100+  0F67 CEF717BFBD35    .db   0CEh,0F7h,017h,0BFh,0BDh,035h,03Fh,03Eh,0CAh,0DFh,0CEh,0EEh,0FEh,0F7h,0E7h,0F7h
0100+  0F6D 3F3ECADFCEEEFEF7E7F7
0101+  0F77 CF57F7E3A3FB    .db   0CFh,057h,0F7h,0E3h,0A3h,0FBh,0C9h,0ABh,0CFh,07Ch,07Eh,074h,0FFh,07Fh,07Bh,03Dh
0101+  0F7D C9ABCF7C7E74FF7F7B3D
0102+  0F87 1DBEFEBFF7DB    .db   01Dh,0BEh,0FEh,0BFh,0F7h,0DBh,0DBh,0D1h,0F3h,0B3h,0F9h,0B9h,0B9h,0CFh,0EBh,0EFh
0102+  0F8D DBD1F3B3F9B9B9CFEBEF
0103+  0F97 7BFDF5FF7DF7    .db   07Bh,0FDh,0F5h,0FFh,07Dh,0F7h,0BFh,0BEh,0BEh,0ABh,0BEh,0F3h,057h,0A7h,0CFh,07Fh
0103+  0F9D BFBEBEABBEF357A7CF7F
0104+  0FA7 7F7BFFFB8FFF    .db   07Fh,07Bh,0FFh,0FBh,08Fh,0FFh,0F7h,07Ch,02Bh,037h,0DFh,0F4h,02Dh,017h,016h,09Fh
0104+  0FAD F77C2B37DFF42D17169F
0105+  0FB7 FE38F74FFDF7    .db   0FEh,038h,0F7h,04Fh,0FDh,0F7h,0D7h,0C7h,0EBh,0EBh,0EFh,0CEh,0C4h,0FFh,07Fh,0FFh
0105+  0FBD D7C7EBEBEFCEC4FF7FFF
0106+  0FC7 3F2DBFDAAEBE    .db   03Fh,02Dh,0BFh,0DAh,0AEh,0BEh,0FEh,0DFh,0FFh,0F7h,0F7h,079h,0F7h,0FFh,0F7h,0F3h
0106+  0FCD FEDFFFF7F779F7FFF7F3
0107+  0FD7 D3EBB9FBEF5C    .db   0D3h,0EBh,0B9h,0FBh,0EFh,05Ch,0FFh,07Dh,07Fh,06Fh,0EFh,037h,03Eh,0BFh,03Dh,0BFh
0107+  0FDD FF7D7F6FEF373EBF3DBF
0108+  0FE7 F30FFB7AFB7F    .db   0F3h,00Fh,0FBh,07Ah,0FBh,07Fh,06Fh,06Bh,02Fh,0E1h,07Bh,0FFh,03Fh,07Fh,0EFh,06Fh
0108+  0FED 6F6B2FE17BFF3F7FEF6F
0109+  0FF7 647EF2FEBE32    .db   064h,07Eh,0F2h,0FEh,0BEh,032h,07Fh,075h,0FDh,0E5h,0D5h,071h,0C9h,070h,0F6h,0EAh
0109+  0FFD 7F75FDE5D571C970F6EA
0110+  1007 D6E6E75DF57D    .db   0D6h,0E6h,0E7h,05Dh,0F5h,07Dh,07Dh,03Ch,0FEh,0B8h,07Fh,05Eh,0BAh,07Eh,0F5h,0DFh
0110+  100D 7D3CFEB87F5EBA7EF5DF
0111+  1017 DFAF5FDF6FEF    .db   0DFh,0AFh,05Fh,0DFh,06Fh,0EFh,0EEh,0EFh,0EFh,0EFh,07Dh,0BBh,09Dh,095h,0BDh,0FEh
0111+  101D EEEFEFEF7DBB9D95BDFE
0112+  1027 FECECFCEDFF5    .db   0FEh,0CEh,0CFh,0CEh,0DFh,0F5h,0FDh,0FFh,0FFh,0FFh,0FFh,0FFh,0BFh,0FFh,0DFh,07Eh
0112+  102D FDFFFFFFFFFFBFFFDF7E
0113+  1037 EF47DDFDDDDB    .db   0EFh,047h,0DDh,0FDh,0DDh,0DBh,0FEh,0FCh,0FEh,0FEh,0FBh,07Eh,0F3h,0D7h,097h,075h
0113+  103D FEFCFEFEFB7EF3D79775
0114+  1047 D7F7FBEBEBE9    .db   0D7h,0F7h,0FBh,0EBh,0EBh,0E9h,0EBh,0CFh,07Ch,01Fh,0DFh,0DFh,0DEh,0E6h,0FEh,026h
0114+  104D EBCF7C1FDFDFDEE6FE26
0115+  1057 2F0E0F73CBBD    .db   02Fh,00Eh,00Fh,073h,0CBh,0BDh,05Dh,0FBh,0E7h,0EBh,0E6h,0A6h,0A2h,0A6h,0F7h,037h
0115+  105D 5DFBE7EBE6A6A2A6F737
0116+  1067 EFBFB79FBEFE    .db   0EFh,0BFh,0B7h,09Fh,0BEh,0FEh,03Eh,03Eh,07Eh,07Dh,0F7h,0F7h,0FFh,0FFh,0B7h,0F7h
0116+  106D 3E3E7E7DF7F7FFFFB7F7
0117+  1077 E9E7C3F1A3CF    .db   0E9h,0E7h,0C3h,0F1h,0A3h,0CFh,07Fh,053h,0FFh,0F5h,0BEh,03Eh,0FDh,0FFh,0DDh,0FFh
0117+  107D 7F53FFF5BE3EFDFFDDFF
0118+  1087 BBF5FFF3F3F9    .db   0BBh,0F5h,0FFh,0F3h,0F3h,0F9h,0F3h,0EFh,0FBh,0DBh,0CFh,0FAh,0EFh,06Ch,0DBh,07Fh
0118+  108D F3EFFBDBCFFAEF6CDB7F
0119+  1097 F7BF7ABFAF9E    .db   0F7h,0BFh,07Ah,0BFh,0AFh,09Eh,0BFh,0F9h,0F5h,0CFh,0F7h,07Fh,0DCh,0ABh,0EBh,07Fh
0119+  109D BFF9F5CFF77FDCABEB7F
0120+  10A7 FFFFBBE76F37    .db   0FFh,0FFh,0BBh,0E7h,06Fh,037h,037h,07Fh,01Bh,03Eh,0EFh,01Dh,09Bh,09Ch,0F8h,0F7h
0120+  10AD 377F1B3EEF1D9B9CF8F7
0121+  10B7 FFFFFBB69FEB    .db   0FFh,0FFh,0FBh,0B6h,09Fh,0EBh,0ABh,0FBh,06Bh,0ABh,0AFh,07Ch,087h,03Fh,01Fh,03Fh
0121+  10BD ABFB6BABAF7C873F1F3F
0122+  10C7 2A9E969B969F    .db   02Ah,09Eh,096h,09Bh,096h,09Fh,0F7h,0C5h,0FBh,0BFh,0BFh,0FEh,0EBh,0F2h,0F9h,0BEh
0122+  10CD F7C5FBBFBFFEEBF2F9BE
0123+  10D7 EFFF54775F7B    .db   0EFh,0FFh,054h,077h,05Fh,07Bh,07Fh,0FEh,0B7h,03Fh,0ABh,0BDh,0FFh,0F3h,0CBh,0FBh
0123+  10DD 7FFEB73FABBDFFF3CBFB
0124+  10E7 F3FBFAADED7D    .db   0F3h,0FBh,0FAh,0ADh,0EDh,07Dh,0FDh,0DDh,07Fh,03Bh,0FFh,02Dh,07Fh,02Dh,0FEh,0BEh
0124+  10ED FDDD7F3BFF2D7F2DFEBE
0125+  10F7 BFFABDBF7577    .db   0BFh,0FAh,0BDh,0BFh,075h,077h,0FDh,0DDh,06Dh,0FDh,0E8h,0F2h,0FBh,0FBh,0FEh,0E7h
0125+  10FD FDDD6DFDE8F2FBFBFEE7
0126+  1107 49357B7F7D7F    .db   049h,035h,07Bh,07Fh,07Dh,07Fh,0BEh,0BEh,0BEh,0BEh,0BEh,0F7h,0EFh,0DFh,0D8h,0DFh
0126+  110D BEBEBEBEBEF7EFDFD8DF
0127+  1117 DFEFEFCFAFAD    .db   0DFh,0EFh,0EFh,0CFh,0AFh,0ADh,04Fh,03Fh,0BFh,09Bh,0BDh,0BBh,0BBh,0DBh,0CFh,0DFh
0127+  111D 4F3FBF9BBDBBBBDBCFDF
0128+  1127 DFCFF5FFBFFD    .db   0DFh,0CFh,0F5h,0FFh,0BFh,0FDh,0BDh,0FCh,07Fh,0FDh,0DFh,0DFh,0BFh,0EFh,056h,0CDh
0128+  112D BDFC7FFDDFDFBFEF56CD
0129+  1137 DDDDD9D6EAFE    .db   0DDh,0DDh,0D9h,0D6h,0EAh,0FEh,0EEh,0EEh,0E6h,0F3h,0D7h,0D7h,0B6h,0D5h,0D5h,0FBh
0129+  113D EEEEE6F3D7D7B6D5D5FB
0130+  1147 EBCBCBEBAF7F    .db   0EBh,0CBh,0CBh,0EBh,0AFh,07Fh,0DFh,0DDh,0D7h,0DFh,05Eh,0AFh,03Dh,0A7h,08Dh,0EFh
0130+  114D DFDDD7DF5EAF3DA78DEF
0131+  1157 73F3F5D3D3DB    .db   073h,0F3h,0F5h,0D3h,0D3h,0DBh,0EAh,0AFh,0DFh,03Dh,0F9h,0F7h,034h,0E7h,0D7h,093h
0131+  115D EAAFDF3DF9F734E7D793
0132+  1167 BB7EB6BBAFCF    .db   0BBh,07Eh,0B6h,0BBh,0AFh,0CFh,0CDh,0F3h,0C7h,0F7h,0B7h,0F7h,0F7h,02Bh,0D1h,0FBh
0132+  116D CDF3C7F7B7F7F72BD1FB
0133+  1177 FBDBE77CFF77    .db   0FBh,0DBh,0E7h,07Ch,0FFh,077h,07Fh,0FBh,07Eh,0DFh,07Fh,0BFh,0BFh,0BDh,0F7h,04Fh
0133+  117D 7FFB7EDF7FBFBFBDF74F
0134+  1187 EFFB7B3FEFAF    .db   0EFh,0FBh,07Bh,03Fh,0EFh,0AFh,0FFh,0FDh,0F9h,0EFh,07Fh,0BFh,0DFh,0FFh,0B5h,05Eh
0134+  118D FFFDF9EF7FBFDFFFB55E
0135+  1197 DEFDFFFFBDF7    .db   0DEh,0FDh,0FFh,0FFh,0BDh,0F7h,0FBh,0FFh,0F7h,0F7h,0F7h,0CBh,0B3h,0FAh,0BBh,0FFh
0135+  119D FBFFF7F7F7CBB3FABBFF
0136+  11A7 E757FB77F5EF    .db   0E7h,057h,0FBh,077h,0F5h,0EFh,077h,0FCh,0FFh,08Ah,09Ah,03Eh,075h,0DFh,0E9h,0E7h
0136+  11AD 77FCFF8A9A3E75DFE9E7
0137+  11B7 6799FF0AFBF3    .db   067h,099h,0FFh,00Ah,0FBh,0F3h,0C5h,0CFh,077h,03Fh,0F7h,0FFh,0B7h,01Fh,0BBh,0B7h
0137+  11BD C5CF773FF7FFB71FBBB7
0138+  11C7 37BFFFF7F2E7    .db   037h,0BFh,0FFh,0F7h,0F2h,0E7h,0D9h,0F4h,0FFh,0BBh,0FBh,0EEh,07Eh,0FBh,0FFh,07Fh
0138+  11CD D9F4FFBBFBEE7EFBFF7F
0139+  11D7 6A5DFD7CDBBE    .db   06Ah,05Dh,0FDh,07Ch,0DBh,0BEh,03Ah,0BEh,0BFh,0FFh,0F3h,0F3h,03Fh,0FDh,0B3h,04Bh
0139+  11DD 3ABEBFFFF3F33FFDB34B
0140+  11E7 FFE7F6F37FFF    .db   0FFh,0E7h,0F6h,0F3h,07Fh,0FFh,03Dh,0FAh,0BEh,06Ah,07Eh,0FFh,0BDh,01Fh,09Fh,0BEh
0140+  11ED 3DFABE6A7EFFBD1F9FBE
0141+  11F7 3374FDFDFDFF    .db   033h,074h,0FDh,0FDh,0FDh,0FFh,0C9h,0F8h,0F6h,0FEh,0FEh,0A7h,0E7h,05Fh,039h,075h
0141+  11FD C9F8F6FEFEA7E75F3975
0142+  1207 7D7EF6BEEFBF    .db   07Dh,07Eh,0F6h,0BEh,0EFh,0BFh,0BCh,0BAh,0F7h,0DFh,0FFh,0FFh,06Fh,0DFh,0F9h,0EBh
0142+  120D BCBAF7DFFFFF6FDFF9EB
0143+  1217 BFDFCBEF3D9D    .db   0BFh,0DFh,0CBh,0EFh,03Dh,09Dh,095h,09Bh,0B7h,0BFh,09Fh,09Ch,0CEh,0CFh,09Fh,0F5h
0143+  121D 959BB7BF9F9CCECF9FF5
0144+  1227 FF7FFF3FFFFF    .db   0FFh,07Fh,0FFh,03Fh,0FFh,0FFh,09Eh,0FFh,0FFh,0BFh,0EFh,055h,0DEh,0DEh,0CEh,0D1h
0144+  122D 9EFFFFBFEF55DEDECED1
0145+  1237 DFECCF6EEAEE    .db   0DFh,0ECh,0CFh,06Eh,0EAh,0EEh,0F4h,0D7h,0DFh,0DBh,0D7h,06Fh,0EBh,0EFh,0EDh,067h
0145+  123D F4D7DFDBD76FEBEFED67
0146+  1247 6BAF7F5F5F1D    .db   06Bh,0AFh,07Fh,05Fh,05Fh,01Dh,05Ch,0DEh,06Eh,037h,08Fh,0AEh,07Bh,073h,0FDh,06Dh
0146+  124D 5CDE6E378FAE7B73FD6D
0147+  1257 EEEBABF367B6    .db   0EEh,0EBh,0ABh,0F3h,067h,0B6h,0F6h,0C7h,0F7h,03Ch,05Bh,05Fh,0DFh,05Ch,0DAh,0EEh
0147+  125D F6C7F73C5B5FDF5CDAEE
0148+  1267 2FEF2FEFF447    .db   02Fh,0EFh,02Fh,0EFh,0F4h,047h,0EFh,09Fh,077h,047h,0FBh,0E3h,0AFh,0EEh,0BBh,0CFh
0148+  126D EF9F7747FBE3AFEEBBCF
0149+  1277 7C7FFFFB7F77    .db   07Ch,07Fh,0FFh,0FBh,07Fh,077h,0EFh,0B9h,0FDh,0FDh,0BFh,0F5h,04Fh,0F7h,0BDh,0F7h
0149+  127D EFB9FDFDBFF54FF7BDF7
0150+  1287 7FBBFFFF9FFF    .db   07Fh,0BBh,0FFh,0FFh,09Fh,0FFh,0FFh,07Bh,0F6h,07Eh,0FEh,0F5h,0FAh,019h,0FDh,03Fh
0150+  128D FF7BF67EFEF5FA19FD3F
0151+  1297 FE7BF1FFA7DF    .db   0FEh,07Bh,0F1h,0FFh,0A7h,0DFh,09Dh,0FFh,0C7h,07Fh,0EFh,0EBh,0C7h,0D7h,057h,076h
0151+  129D 9DFFC77FEFEBC7D75776
0152+  12A7 FBC7392BBEFF    .db   0FBh,0C7h,039h,02Bh,0BEh,0FFh,01Fh,09Fh,09Eh,0F4h,07Bh,0E6h,0AFh,0E7h,0E7h,07Dh
0152+  12AD 1F9F9EF47BE6AFE7E77D
0153+  12B7 4B57DB9FAF3D    .db   04Bh,057h,0DBh,09Fh,0AFh,03Dh,09Fh,077h,0FFh,06Dh,07Fh,0CFh,09Dh,0F3h,0F6h,07Eh
0153+  12BD 9F77FF6D7FCF9DF3F67E
0154+  12C7 F7F77DDF9FED    .db   0F7h,0F7h,07Dh,0DFh,09Fh,0EDh,0FBh,09Bh,0FBh,0FFh,0E3h,0FFh,07Ch,076h,079h,0F9h
0154+  12CD FB9BFBFFE3FF7C7679F9
0155+  12D7 7E7BBA2D3BB4    .db   07Eh,07Bh,0BAh,02Dh,03Bh,0B4h,031h,0F3h,0EBh,0E6h,0FFh,0FFh,0DFh,0BDh,0E5h,0F3h
0155+  12DD 31F3EBE6FFFFDFBDE5F3
0156+  12E7 BBE7FF2BB7EA    .db   0BBh,0E7h,0FFh,02Bh,0B7h,0EAh,07Eh,07Eh,07Ah,0DFh,033h,0FFh,0BFh,0DFh,075h,0FFh
0156+  12ED 7E7E7ADF33FFBFDF75FF
0157+  12F7 FDFDF5D1FFF2    .db   0FDh,0FDh,0F5h,0D1h,0FFh,0F2h,0DFh,0FFh,0DFh,0E7h,05Ch,0FFh,0FBh,07Dh,07Dh,07Ah
0157+  12FD DFFFDFE75CFFFB7D7D7A
0158+  1307 7F7FDEBEBEF7    .db   07Fh,07Fh,0DEh,0BEh,0BEh,0F7h,0DFh,06Eh,0FBh,0BFh,0FEh,0EDh,0EFh,0EFh,0FBh,0EFh
0158+  130D DF6EFBBFFEEDEFEFFBEF
0159+  1317 EF3FBD9DBDBD    .db   0EFh,03Fh,0BDh,09Dh,0BDh,0BDh,0BEh,0DFh,0DAh,0DBh,09Eh,0DFh,0F5h,0FBh,0FFh,0FDh
0159+  131D BEDFDADB9EDFF5FBFFFD
0160+  1327 7C7FBFFEFFFF    .db   07Ch,07Fh,0BFh,0FEh,0FFh,0FFh,07Dh,0EFh,055h,0CEh,0D6h,0DEh,0DEh,0DFh,06Eh,0CFh
0160+  132D 7DEF55CED6DEDEDF6ECF
0161+  1337 69EFEEF3CFF7    .db   069h,0EFh,0EEh,0F3h,0CFh,0F7h,03Fh,0DFh,0DFh,0E9h,0D7h,0FBh,08Bh,0EBh,0AFh,077h
0161+  133D 3FDFDFE9D7FB8BEBAF77
0162+  1347 1FDF5B59136F    .db   01Fh,0DFh,05Bh,059h,013h,06Fh,01Fh,0EEh,00Eh,00Fh,073h,0B3h,0F5h,0ABh,0EBh,063h
0162+  134D 1FEE0E0F73B3F5ABEB63
0163+  1357 3777FAD6E777    .db   037h,077h,0FAh,0D6h,0E7h,077h,036h,0DEh,0D7h,05Fh,05Dh,0DEh,0EAh,06Fh,06Eh,0EDh
0163+  135D 36DED75F5DDEEA6F6EED
0164+  1367 EFF5C7E7DFDE    .db   0EFh,0F5h,0C7h,0E7h,0DFh,0DEh,0E7h,0EBh,0E2h,0B3h,0FBh,0FBh,0EFh,07Fh,0FEh,07Bh
0164+  136D E7EBE2B3FBFBEF7FFE7B
0165+  1377 FFFFFEBFBFBF    .db   0FFh,0FFh,0FEh,0BFh,0BFh,0BFh,0FFh,09Dh,0F5h,0D7h,067h,0F7h,0F7h,0F7h,0EFh,0FEh
0165+  137D FF9DF5D767F7F7F7EFFE
0166+  1387 FFBFDAEF771F    .db   0FFh,0BFh,0DAh,0EFh,077h,01Fh,07Eh,076h,05Ch,03Bh,03Eh,0FFh,03Ah,05Ch,07Dh,0F4h
0166+  138D 7E765C3B3EFF3A5C7DF4
0167+  1397 FFFF9F5747D6    .db   0FFh,0FFh,09Fh,057h,047h,0D6h,0CFh,0B6h,0E3h,0E7h,0EFh,01Fh,02Dh,0F7h,02Fh,02Fh
0167+  139D CFB6E3E7EF1F2DF72F2F
0168+  13A7 FFFFFF9A1ABE    .db   0FFh,0FFh,0FFh,09Ah,01Ah,0BEh,077h,077h,0D6h,0BFh,0FFh,0B7h,0EBh,07Fh,07Bh,067h
0168+  13AD 7777D6BFFFB7EB7F7B67
0169+  13B7 68EF7DBFBFBF    .db   068h,0EFh,07Dh,0BFh,0BFh,0BFh,02Fh,0AFh,0FEh,07Fh,0DFh,0FEh,05Fh,0F5h,0D7h,0FFh
0169+  13BD 2FAFFE7FDFFE5FF5D7FF
0170+  13C7 F7F3F7FB83FB    .db   0F7h,0F3h,0F7h,0FBh,083h,0FBh,0FBh,0A3h,0FFh,07Bh,07Fh,07Bh,07Fh,0EFh,076h,036h
0170+  13CD FBA3FF7B7F7B7FEF7636
0171+  13D7 35BC393BF3BB    .db   035h,0BCh,039h,03Bh,0F3h,0BBh,0FBh,0FAh,0BBh,0F3h,0E7h,0E7h,0E9h,0E7h,06Dh,0FFh
0171+  13DD FBFABBF3E7E7E9E76DFF
0172+  13E7 3F7B7FBB797F    .db   03Fh,07Bh,07Fh,0BBh,079h,07Fh,07Fh,0FCh,0FFh,0FFh,0BFh,075h,0F7h,0F5h,0FFh,0B9h
0172+  13ED 7FFCFFFFBF75F7F5FFB9
0173+  13F7 BDE3FADFDAFB    .db   0BDh,0E3h,0FAh,0DFh,0DAh,0FBh,0E7h,05Dh,079h,07Fh,0DFh,0FDh,07Eh,0FEh,0BCh,0BEh
0173+  13FD E75D797FDFFD7EFEBCBE
0174+  1407 DCBEF5DFDFFF    .db   0DCh,0BEh,0F5h,0DFh,0DFh,0FFh,0FFh,09Fh,0F6h,0FFh,0EFh,0F7h,0EFh,0EFh,07Fh,0BDh
0174+  140D FF9FF6FFEFF7EFEF7FBD
0175+  1417 BFB9BF9EDEDD    .db   0BFh,0B9h,0BFh,09Eh,0DEh,0DDh,0DEh,0DFh,0DFh,0F5h,0FFh,0FDh,0BFh,0FFh,0FFh,0FFh
0175+  141D DEDFDFF5FFFDBFFFFFFF
0176+  1427 FEFFFEFFEF5D    .db   0FEh,0FFh,0FEh,0FFh,0EFh,05Dh,0F9h,0DFh,0DFh,0DDh,0DFh,06Fh,04Ch,0EFh,06Ch,0EEh
0176+  142D F9DFDFDDDF6F4CEF6CEE
0177+  1437 F5D7D5BDFDD5    .db   0F5h,0D7h,0D5h,0BDh,0FDh,0D5h,0EBh,0EDh,0EAh,0EAh,0EAh,0EFh,07Fh,0DBh,07Fh,01Fh
0177+  143D EBEDEAEAEAEF7FDB7F1F
0178+  1447 DF1E2FAFBFFF    .db   0DFh,01Eh,02Fh,0AFh,0BFh,0FFh,08Bh,073h,0F6h,0F7h,0FDh,0FEh,0B5h,0F7h,05Eh,0EFh
0178+  144D 8B73F6F7FDFEB5F75EEF
0179+  1457 FFFEF73FB93F    .db   0FFh,0FEh,0F7h,03Fh,0B9h,03Fh,0FFh,0BBh,0FEh,0ACh,02Eh,09Eh,07Eh,0FFh,0F5h,0F7h
0179+  145D FFBBFEAC2E9E7EFFF5F7
0180+  1467 D7F7FFB7FFC3    .db   0D7h,0F7h,0FFh,0B7h,0FFh,0C3h,0DBh,0E1h,0D3h,0AFh,07Dh,07Fh,07Fh,0FFh,0FBh,0FFh
0180+  146D DBE1D3AF7D7F7FFFFBFF
0181+  1477 FDFFFE7FBFF7    .db   0FDh,0FFh,0FEh,07Fh,0BFh,0F7h,0D3h,0F3h,0FFh,0FBh,0F7h,0EFh,0FBh,0FDh,0E7h,0FBh
0181+  147D D3F3FFFBF7EFFBFDE7FB
0182+  1487 FF7FFF7BBFFF    .db   0FFh,07Fh,0FFh,07Bh,0BFh,0FFh,0BFh,07Eh,05Fh,09Dh,0FEh,0FFh,0F3h,0FEh,0FFh,0FFh
0182+  148D BF7E5F9DFEFFF3FEFFFF
0183+  1497 F7F6E7E7FDFB    .db   0F7h,0F6h,0E7h,0E7h,0FDh,0FBh,0EBh,0F7h,07Dh,079h,0B9h,03Bh,0FBh,0BAh,0DCh,0DCh
0183+  149D EBF77D79B93BFBBADCDC
0184+  14A7 FCFCFFF5FBFB    .db   0FCh,0FCh,0FFh,0F5h,0FBh,0FBh,0DBh,0BBh,0FBh,0FDh,0FDh,0FDh,0FCh,0FDh,0DFh,07Dh
0184+  14AD DBBBFBFDFDFDFCFDDF7D
0185+  14B7 B8399DBCBE5E    .db   0B8h,039h,09Dh,0BCh,0BEh,05Eh,05Eh,0DEh,0DEh,0DBh,0F7h,0EDh,0AFh,0AFh,0AFh,0ABh
0185+  14BD 5EDEDEDBF7EDAFAFAFAB
0186+  14C7 A5C5C5C547BF    .db   0A5h,0C5h,0C5h,0C5h,047h,0BFh,05Fh,07Eh,07Eh,07Fh,0FBh,0FBh,07Dh,075h,07Dh,07Dh
0186+  14CD 5F7E7E7FFBFB7D757D7D
0187+  14D7 F3F58EEEEFAF    .db   0F3h,0F5h,08Eh,0EEh,0EFh,0AFh,08Fh,0B7h,0D7h,0D7h,0D7h,0D7h,0BFh,079h,0FEh,0FEh
0187+  14DD 8FB7D7D7D7D7BF79FEFE
0188+  14E7 FAFEFF7F7F7F    .db   0FAh,0FEh,0FFh,07Fh,07Fh,07Fh,07Fh,07Fh,0FFh,0FFh
0188+  14ED 7F7FFFFF
0189+  14F1             
0190+  14F1             LCA1_END:
0191+  14F1             
0192+  14F1                   .end
0193+  14F1             
0194+  14F1             ;--------------------- eof --------------------------
0794   14F1             
0795   14F1             ;---- DSP config data ----  
0796   14F1             #include "dsp_m6db.asm"
0001+  14F1             ;--------------------------------------------------
0002+  14F1             ;  File: DSP_M6DB.asm
0003+  14F1             ;  Date: Sun Oct 11 20:44:50 1998
0004+  14F1             ;
0005+  14F1             ;  Produced by bin2asm.exe
0006+  14F1             ;--------------------------------------------------
0007+  14F1             
0008+  14F1             DSP_M6DB:
0009+  14F1             
0010+  14F1 FF80FB00FF80.db 0FFh,080h,0FBh,000h,0FFh,080h,0FCh,084h,0FFh,080h,0FBh,000h,0FFh,080h,0FBh,000h
0010+  14F7 FC84FF80FB00FF80FB00
0011+  1501 FF80FB00FF80.db 0FFh,080h,0FBh,000h,0FFh,080h,0FCh,09Dh,0FFh,080h,0FCh,08Ch,000h,000h,000h,000h
0011+  1507 FC9DFF80FC8C00000000
0012+  1511 000000000000.db 000h,000h,000h,000h,000h,000h,000h,000h,000h,000h,000h,000h,000h,000h,000h,000h
0012+  1517 00000000000000000000
0013+  1521 000000000000.db 000h,000h,000h,000h,000h,000h,000h,000h,000h,000h,000h,000h,000h,000h,000h,000h
0013+  1527 00000000000000000000
0014+  1531 000000000000.db 000h,000h,000h,000h,000h,000h,000h,000h,000h,000h,000h,000h,000h,000h,000h,000h
0014+  1537 00000000000000000000
0015+  1541 000000000000.db 000h,000h,000h,000h,000h,000h,000h,000h,000h,000h,000h,000h,000h,000h,000h,000h
0015+  1547 00000000000000000000
0016+  1551 000000000000.db 000h,000h,000h,000h,000h,000h,000h,000h,000h,000h,000h,000h,000h,000h,000h,000h
0016+  1557 00000000000000000000
0017+  1561 000000000000.db 000h,000h,000h,000h,000h,000h,000h,000h,000h,000h,000h,000h,000h,000h,000h,000h
0017+  1567 00000000000000000000
0018+  1571 000000000000.db 000h,000h,000h,000h,000h,000h,000h,000h,000h,000h,000h,000h,000h,000h,000h,000h
0018+  1577 00000000000000000000
0019+  1581 000000000000.db 000h,000h,000h,000h,000h,000h,000h,000h,000h,000h,000h,000h,000h,000h,000h,000h
0019+  1587 00000000000000000000
0020+  1591 000000000000.db 000h,000h,000h,000h,000h,000h,000h,000h,000h,000h,000h,000h,000h,000h,000h,000h
0020+  1597 00000000000000000000
0021+  15A1 000000000000.db 000h,000h,000h,000h,000h,000h,000h,000h,000h,000h,000h,000h,000h,000h,000h,000h
0021+  15A7 00000000000000000000
0022+  15B1 000000000000.db 000h,000h,000h,000h,000h,000h,000h,000h,000h,000h,000h,000h,000h,000h,000h,000h
0022+  15B7 00000000000000000000
0023+  15C1 000000000000.db 000h,000h,000h,000h,000h,000h,000h,000h,000h,000h,000h,000h,000h,000h,000h,000h
0023+  15C7 00000000000000000000
0024+  15D1 000000000000.db 000h,000h,000h,000h,000h,000h,000h,000h,000h,000h,000h,000h,000h,000h,000h,000h
0024+  15D7 00000000000000000000
0025+  15E1 000000000000.db 000h,000h,000h,000h,000h,000h,000h,000h,000h,000h,000h,000h,000h,000h,000h,000h
0025+  15E7 00000000000000000000
0026+  15F1 000000000000.db 000h,000h,000h,000h,000h,000h,000h,000h,000h,000h,000h,000h,000h,000h,000h,000h
0026+  15F7 00000000000000000000
0027+  1601 000000000000.db 000h,000h,000h,000h,000h,000h,000h,000h,000h,000h,000h,000h,000h,000h,000h,000h
0027+  1607 00000000000000000000
0028+  1611 000000000000.db 000h,000h,000h,000h,000h,000h,000h,000h,000h,000h,000h,000h,000h,000h,000h,000h
0028+  1617 00000000000000000000
0029+  1621 000000000000.db 000h,000h,000h,000h,000h,000h,000h,000h,000h,000h,000h,000h,000h,000h,000h,000h
0029+  1627 00000000000000000000
0030+  1631 000000000000.db 000h,000h,000h,000h,000h,000h,000h,000h,000h,000h,000h,000h,000h,000h,000h,000h
0030+  1637 00000000000000000000
0031+  1641 000000000000.db 000h,000h,000h,000h,000h,000h,000h,000h,000h,000h,000h,000h,000h,000h,000h,000h
0031+  1647 00000000000000000000
0032+  1651 000000000000.db 000h,000h,000h,000h,000h,000h,000h,000h,000h,000h,000h,000h,000h,000h,000h,000h
0032+  1657 00000000000000000000
0033+  1661 000000000000.db 000h,000h,000h,000h,000h,000h,000h,000h,000h,000h,000h,000h,000h,000h,000h,000h
0033+  1667 00000000000000000000
0034+  1671 000000000000.db 000h,000h,000h,000h,000h,000h,000h,000h,000h,000h,000h,000h,000h,000h,000h,000h
0034+  1677 00000000000000000000
0035+  1681 000000000000.db 000h,000h,000h,000h,000h,000h,000h,000h,000h,000h,000h,000h,000h,000h,000h,000h
0035+  1687 00000000000000000000
0036+  1691 000000000000.db 000h,000h,000h,000h,000h,000h,000h,000h,000h,000h,000h,000h,000h,000h,000h,000h
0036+  1697 00000000000000000000
0037+  16A1 000000000000.db 000h,000h,000h,000h,000h,000h,000h,000h,000h,000h,000h,000h,000h,000h,000h,000h
0037+  16A7 00000000000000000000
0038+  16B1 000000000000.db 000h,000h,000h,000h,000h,000h,000h,000h,000h,000h,000h,000h,000h,000h,000h,000h
0038+  16B7 00000000000000000000
0039+  16C1 000000000000.db 000h,000h,000h,000h,000h,000h,000h,000h,000h,000h,000h,000h,000h,000h,000h,000h
0039+  16C7 00000000000000000000
0040+  16D1 000000000000.db 000h,000h,000h,000h,000h,000h,000h,000h,000h,000h,000h,000h,000h,000h,000h,000h
0040+  16D7 00000000000000000000
0041+  16E1 000000000000.db 000h,000h,000h,000h,000h,000h,000h,000h,000h,000h,000h,000h,000h,000h,000h,000h
0041+  16E7 00000000000000000000
0042+  16F1 C800CE0ECE20.db 0C8h,000h,0CEh,00Eh,0CEh,020h,0CEh,037h,0CAh,080h,060h,005h,0CEh,03Eh,0CEh,003h
0042+  16F7 CE37CA806005CE3ECE03
0043+  1701 CE07CE08D001.db 0CEh,007h,0CEh,008h,0D0h,001h,000h,000h,055h,088h,0D0h,000h,006h,000h,0CBh,0FFh
0043+  1707 00005588D0000600CBFF
0044+  1711 60A0CBFF60A0.db 060h,0A0h,0CBh,0FFh,060h,0A0h,0D0h,001h,000h,000h,060h,075h,0CAh,07Fh,060h,06Dh
0044+  1717 D00100006075CA7F606D
0045+  1721 D0018000606E.db 0D0h,001h,080h,000h,060h,06Eh,0D0h,001h,075h,030h,060h,06Fh,0D0h,001h,019h,039h
0045+  1727 D0017530606FD0011939
0046+  1731 6070CA006068.db 060h,070h,0CAh,000h,060h,068h,0D7h,000h,006h,080h,0D0h,001h,006h,0C0h,060h,06Ah
0046+  1737 D7000680D00106C0606A
0047+  1741 C02C7069D600.db 0C0h,02Ch,070h,069h,0D6h,000h,006h,000h,0CAh,035h,060h,004h,020h,064h,0F6h,080h
0047+  1747 0600CA3560042064F680
0048+  1751 FB2ECA006064.db 0FBh,02Eh,0CAh,000h,060h,064h,0C0h,004h,0D5h,000h,006h,000h,031h,06Ah,0C2h,00Ah
0048+  1757 C004D5000600316AC20A
0049+  1761 C4035589C307.db 0C4h,003h,055h,089h,0C3h,007h,020h,080h,0CEh,035h,060h,0E0h,020h,060h,0CEh,034h
0049+  1767 2080CE3560E02060CE34
0050+  1771 60602080CE35.db 060h,060h,020h,080h,0CEh,035h,060h,0EBh,020h,060h,0CEh,034h,060h,060h,0FBh,099h
0050+  1777 60EB2060CE346060FB99
0051+  1781 FB3B558D60A9.db 0FBh,03Bh,055h,08Dh,060h,0A9h,07Fh,040h,055h,08Ah,0FBh,099h,0FBh,03Ah,0C2h,00Ah
0051+  1787 7F40558AFB99FB3AC20A
0052+  1791 7E01558CFB99.db 07Eh,001h,055h,08Ch,0FBh,099h,0FBh,03Ah,0CEh,01Fh,0CAh,001h,010h,068h,060h,068h
0052+  1797 FB3ACE1FCA0110686068
0053+  17A1 D00006C0F680.db 0D0h,000h,006h,0C0h,0F6h,080h,0FBh,05Eh,0D0h,000h,006h,080h,070h,06Ah,0CEh,001h
0053+  17A7 FB5ED0000680706ACE01
0054+  17B1 D70006809F68.db 0D7h,000h,006h,080h,09Fh,068h,0F8h,080h,0FBh,067h,0D7h,000h,006h,0C0h,0CEh,000h
0054+  17B7 F880FB67D70006C0CE00
0055+  17C1 316A326A558A.db 031h,06Ah,032h,06Ah,055h,08Ah,07Fh,002h,020h,073h,060h,0A0h,020h,074h,060h,090h
0055+  17C7 7F02207360A020746090
0056+  17D1 D30007C0D400.db 0D3h,000h,007h,0C0h,0D4h,000h,007h,040h,0C5h,01Fh,055h,089h,0F7h,080h,0FBh,078h
0056+  17D7 0740C51F5589F780FB78
0057+  17E1 2F8A3CA9386E.db 02Fh,08Ah,03Ch,0A9h,038h,06Eh,03Dh,071h,038h,06Fh,03Dh,0ACh,068h,071h,038h,070h
0057+  17E7 3D71386F3DAC68713870
0058+  17F1 CE1548754475.db 0CEh,015h,048h,075h,044h,075h,044h,075h,048h,075h,068h,0ABh,0CEh,01Bh,068h,0A9h
0058+  17F7 4475487568ABCE1B68A9
0059+  1801 2F8A3CA9386E.db 02Fh,08Ah,03Ch,0A9h,038h,06Eh,03Dh,072h,038h,06Fh,03Dh,0ACh,068h,072h,038h,070h
0059+  1807 3D72386F3DAC68723870
0060+  1811 CE1548754475.db 0CEh,015h,048h,075h,044h,075h,044h,075h,048h,075h,068h,0ABh,0CEh,01Bh,068h,0ADh
0060+  1817 4475487568ABCE1B68AD
0061+  1821 FB99FB787F02.db 0FBh,099h,0FBh,078h,07Fh,002h,020h,0A0h,060h,073h,020h,080h,060h,074h,0D0h,001h
0061+  1827 20A0607320806074D001
0062+  1831 0740606AF780.db 007h,040h,060h,06Ah,0F7h,080h,0FBh,0A8h,0D0h,001h,044h,000h,060h,076h,060h,077h
0062+  1837 FBA8D001440060766077
0063+  1841 C002D10007C0.db 0C0h,002h,0D1h,000h,007h,0C0h,0D0h,001h,001h,0FFh,0CBh,01Fh,04Dh,0E0h,060h,065h
0063+  1847 D00101FFCB1F4DE06065
0064+  1851 4065C1097F01.db 040h,065h,0C1h,009h,07Fh,001h,0CEh,034h,05Fh,080h,0FBh,0B2h,071h,065h,0C0h,002h
0064+  1857 CE345F80FBB27165C002
0065+  1861 D10007C1D001.db 0D1h,000h,007h,0C1h,0D0h,001h,001h,0FFh,0CBh,01Fh,04Dh,0E0h,060h,066h,040h,066h
0065+  1867 01FFCB1F4DE060664066
0066+  1871 C1095589DF05.db 0C1h,009h,055h,089h,0DFh,005h,003h,0FFh,07Fh,001h,0CEh,034h,05Fh,080h,0FBh,0C4h
0066+  1877 03FF7F01CE345F80FBC4
0067+  1881 71662B65D005.db 071h,066h,02Bh,065h,0D0h,005h,004h,000h,010h,076h,05Fh,080h,0FBh,0D4h,02Bh,065h
0067+  1887 040010765F80FBD42B65
0068+  1891 D0050400FF80.db 0D0h,005h,004h,000h,0FFh,080h,0FBh,0D9h,020h,076h,0CDh,00Fh,05Eh,080h,0FBh,0D9h
0068+  1897 FBD92076CD0F5E80FBD9
0069+  18A1 CA0060762B66.db 0CAh,000h,060h,076h,02Bh,066h,0D0h,005h,004h,000h,010h,077h,05Fh,080h,0FBh,0E5h
0069+  18A7 D005040010775F80FBE5
0070+  18B1 2B66D0050400.db 02Bh,066h,0D0h,005h,004h,000h,0FFh,080h,0FBh,0EAh,020h,077h,0CDh,00Fh,05Eh,080h
0070+  18B7 FF80FBEA2077CD0F5E80
0071+  18C1 FBEACA006077.db 0FBh,0EAh,0CAh,000h,060h,077h,025h,076h,068h,078h,020h,078h,0D0h,002h,0FCh,0AEh
0071+  18C7 257668782078D002FCAE
0072+  18D1 587925776878.db 058h,079h,025h,077h,068h,078h,020h,078h,0D0h,002h,0FCh,0B9h,058h,07Ah,0D0h,000h
0072+  18D7 2078D002FCB9587AD000
0073+  18E1 FFFF55882079.db 0FFh,0FFh,055h,088h,020h,079h,04Dh,07Ah,060h,080h,0DEh,001h,000h,001h,030h,065h
0073+  18E7 4D7A6080DE0100013065
0074+  18F1 55887F01FB90.db 055h,088h,07Fh,001h,0FBh,090h,0FCh,006h,0FFh,080h,0FCh,00Dh,0FBh,090h,0FCh,00Bh
0074+  18F7 FC06FF80FC0DFB90FC0B
0075+  1901 FF80FC0DCE19.db 0FFh,080h,0FCh,00Dh,0CEh,019h,0FBh,090h,0FCh,00Ah,060h,060h,03Ch,060h,020h,065h
0075+  1907 FB90FC0A60603C602065
0076+  1911 D002FCA65865.db 0D0h,002h,0FCh,0A6h,058h,065h,0C0h,006h,055h,089h,028h,065h,0D0h,004h,004h,000h
0076+  1917 C00655892865D0040400
0077+  1921 6067C208316A.db 060h,067h,0C2h,008h,031h,06Ah,0FEh,080h,0FCh,074h,029h,065h,0D0h,004h,004h,000h
0077+  1927 FE80FC742965D0040400
0078+  1931 6067C208316A.db 060h,067h,0C2h,008h,031h,06Ah,07Eh,002h,0FEh,080h,0FCh,074h,02Ah,065h,0D0h,004h
0078+  1937 7E02FE80FC742A65D004
0079+  1941 04006067C208.db 004h,000h,060h,067h,0C2h,008h,031h,06Ah,07Eh,004h,0FEh,080h,0FCh,074h,0CAh,000h
0079+  1947 316A7E04FE80FC74CA00
0080+  1951 6067C204C002.db 060h,067h,0C2h,004h,0C0h,002h,031h,06Ah,07Eh,036h,0FEh,080h,0FCh,074h,0DEh,001h
0080+  1957 316A7E36FE80FC74DE01
0081+  1961 000130665588.db 000h,001h,030h,066h,055h,088h,07Fh,001h,0FBh,090h,0FCh,040h,0FFh,080h,0FCh,047h
0081+  1967 7F01FB90FC40FF80FC47
0082+  1971 FB90FC45FF80.db 0FBh,090h,0FCh,045h,0FFh,080h,0FCh,047h,0CEh,019h,0FBh,090h,0FCh,044h,060h,060h
0082+  1977 FC47CE19FB90FC446060
0083+  1981 3C602066D002.db 03Ch,060h,020h,066h,0D0h,002h,0FCh,0A6h,058h,066h,0C0h,006h,055h,089h,028h,066h
0083+  1987 FCA65866C00655892866
0084+  1991 D00404006067.db 0D0h,004h,004h,000h,060h,067h,0C2h,008h,031h,06Ah,07Eh,001h,0FEh,080h,0FCh,074h
0084+  1997 C208316A7E01FE80FC74
0085+  19A1 2966D0040400.db 029h,066h,0D0h,004h,004h,000h,060h,067h,0C2h,008h,031h,06Ah,07Eh,003h,0FEh,080h
0085+  19A7 6067C208316A7E03FE80
0086+  19B1 FC742A66D004.db 0FCh,074h,02Ah,066h,0D0h,004h,004h,000h,060h,067h,0C2h,008h,031h,06Ah,07Eh,005h
0086+  19B7 04006067C208316A7E05
0087+  19C1 FE80FC74CA00.db 0FEh,080h,0FCh,074h,0CAh,000h,060h,067h,0C2h,004h,0C0h,002h,031h,06Ah,07Eh,037h
0087+  19C7 6067C204C002316A7E37
0088+  19D1 FE80FC74FF80.db 0FEh,080h,0FCh,074h,0FFh,080h,0FBh,02Eh,0CFh,080h,07Dh,080h,02Ch,080h,068h,080h
0088+  19D7 FB2ECF807D802C806880
0089+  19E1 20804E6DD002.db 020h,080h,04Eh,06Dh,0D0h,002h,0FCh,0C4h,058h,080h,040h,067h,048h,080h,0CEh,015h
0089+  19E7 FCC4588040674880CE15
0090+  19F1 68EAFB99FC74.db 068h,0EAh,0FBh,099h,0FCh,074h,0CEh,026h,079h,061h,077h,06Ch,0C7h,02Bh,077h,069h
0090+  19F7 CE267961776CC72B7769
0091+  1A01 376C5161CE00.db 037h,06Ch,051h,061h,0CEh,000h,0CEh,026h,079h,061h,077h,06Ch,055h,08Eh,037h,0AFh
0091+  1A07 CE267961776C558E37AF
0092+  1A11 77013769FB90.db 077h,001h,037h,069h,0FBh,090h,0FCh,098h,0C7h,02Ch,0D6h,000h,006h,000h,077h,064h
0092+  1A17 FC98C72CD60006007764
0093+  1A21 7769376C5161.db 077h,069h,037h,06Ch,051h,061h,0CEh,000h,0CEh,026h,079h,061h,076h,06Bh,055h,08Fh
0093+  1A27 CE00CE267961766B558F
0094+  1A31 360076A0366B.db 036h,000h,076h,0A0h,036h,06Bh,051h,061h,0CEh,000h,0CEh,026h,000h,000h,000h,001h
0094+  1A37 5161CE00CE2600000001
0095+  1A41 000200040003.db 000h,002h,000h,004h,000h,003h,000h,005h,000h,006h,000h,007h,000h,000h,000h,000h
0095+  1A47 00050006000700000000
0096+  1A51 000000000000.db 000h,000h,000h,000h,000h,000h,000h,080h,000h,0A0h,000h,0A8h,000h,0AAh,000h,0AAh
0096+  1A57 008000A000A800AA00AA
0097+  1A61 00AA00000000.db 000h,0AAh,000h,000h,000h,000h,000h,000h,000h,000h,000h,000h,000h,040h,000h,050h
0097+  1A67 00000000000000400050
0098+  1A71 005400550055.db 000h,054h,000h,055h,000h,055h,000h,055h,000h,000h,004h,000h,004h,000h,000h,000h
0098+  1A77 00550000040004000000
0099+  1A81 040000000000.db 004h,000h,000h,000h,000h,000h,004h,000h,004h,000h,000h,000h,000h,000h,004h,000h
0099+  1A87 04000400000000000400
0100+  1A91 000004000400.db 000h,000h,004h,000h,004h,000h,000h,000h,004h,000h,000h,000h,000h,000h,004h,000h
0100+  1A97 00000400000000000400
0101+  1AA1 000004000400.db 000h,000h,004h,000h,004h,000h,000h,000h,000h,000h,004h,000h,004h,000h,000h,000h
0101+  1AA7 00000000040004000000
0102+  1AB1 040000000000.db 004h,000h,000h,000h,000h,000h,004h,000h,004h,000h,000h,000h,000h,000h,004h,000h
0102+  1AB7 04000400000000000400
0103+  1AC1 000004000400.db 000h,000h,004h,000h,004h,000h,000h,000h,000h,000h,004h,000h,004h,000h,000h,000h
0103+  1AC7 00000000040004000000
0104+  1AD1 040000000000.db 004h,000h,000h,000h,000h,000h,004h,000h,000h,000h,004h,000h,004h,000h,000h,000h
0104+  1AD7 04000000040004000000
0105+  1AE1 040000000000.db 004h,000h,000h,000h,000h,000h,004h,000h,004h,000h,000h,000h,000h,000h,004h,000h
0105+  1AE7 04000400000000000400
0106+  1AF1 000004000400.db 000h,000h,004h,000h,004h,000h,000h,000h,004h,000h,000h,000h,000h,000h,004h,000h
0106+  1AF7 00000400000000000400
0107+  1B01 000004000400.db 000h,000h,004h,000h,004h,000h,000h,000h,000h,000h,004h,000h,004h,000h,000h,000h
0107+  1B07 00000000040004000000
0108+  1B11 040000000000.db 004h,000h,000h,000h,000h,000h,004h,000h,000h,000h,004h,000h,004h,000h,000h,000h
0108+  1B17 04000000040004000000
0109+  1B21 040000000000.db 004h,000h,000h,000h,000h,000h,004h,000h,004h,000h,000h,000h,000h,000h,004h,000h
0109+  1B27 04000400000000000400
0110+  1B31 000004000400.db 000h,000h,004h,000h,004h,000h,000h,000h,000h,000h,004h,000h,004h,000h,000h,000h
0110+  1B37 00000000040004000000
0111+  1B41 040000000000.db 004h,000h,000h,000h,000h,000h,004h,000h,004h,000h,000h,000h,000h,000h,004h,000h
0111+  1B47 04000400000000000400
0112+  1B51 000004000400.db 000h,000h,004h,000h,004h,000h,000h,000h,004h,000h,000h,000h,000h,000h,004h,000h
0112+  1B57 00000400000000000400
0113+  1B61 000004000400.db 000h,000h,004h,000h,004h,000h,000h,000h,000h,000h,004h,000h,004h,000h,000h,000h
0113+  1B67 00000000040004000000
0114+  1B71 040000000000.db 004h,000h,000h,000h,000h,000h,004h,000h,000h,000h
0114+  1B77 04000000
0115+  1B7B             
0116+  1B7B 00          DSP_M6DBEND:		.db	0
0117+  1B7C             
0118+  1B7C             ;------------------- end of file -----------------------
0119+  1B7C             
0797   1B7C             #include "dsp_0db.asm"
0001+  1B7C             ;--------------------------------------------------
0002+  1B7C             ;  File: DSP_0DB.asm
0003+  1B7C             ;  Date: Sun Oct 11 20:44:50 1998
0004+  1B7C             ;
0005+  1B7C             ;  Produced by bin2asm.exe
0006+  1B7C             ;--------------------------------------------------
0007+  1B7C             
0008+  1B7C             DSP_0DB:
0009+  1B7C             
0010+  1B7C FF80FB00FF80.db 0FFh,080h,0FBh,000h,0FFh,080h,0FCh,084h,0FFh,080h,0FBh,000h,0FFh,080h,0FBh,000h
0010+  1B82 FC84FF80FB00FF80FB00
0011+  1B8C FF80FB00FF80.db 0FFh,080h,0FBh,000h,0FFh,080h,0FCh,09Dh,0FFh,080h,0FCh,08Ch,000h,000h,000h,000h
0011+  1B92 FC9DFF80FC8C00000000
0012+  1B9C 000000000000.db 000h,000h,000h,000h,000h,000h,000h,000h,000h,000h,000h,000h,000h,000h,000h,000h
0012+  1BA2 00000000000000000000
0013+  1BAC 000000000000.db 000h,000h,000h,000h,000h,000h,000h,000h,000h,000h,000h,000h,000h,000h,000h,000h
0013+  1BB2 00000000000000000000
0014+  1BBC 000000000000.db 000h,000h,000h,000h,000h,000h,000h,000h,000h,000h,000h,000h,000h,000h,000h,000h
0014+  1BC2 00000000000000000000
0015+  1BCC 000000000000.db 000h,000h,000h,000h,000h,000h,000h,000h,000h,000h,000h,000h,000h,000h,000h,000h
0015+  1BD2 00000000000000000000
0016+  1BDC 000000000000.db 000h,000h,000h,000h,000h,000h,000h,000h,000h,000h,000h,000h,000h,000h,000h,000h
0016+  1BE2 00000000000000000000
0017+  1BEC 000000000000.db 000h,000h,000h,000h,000h,000h,000h,000h,000h,000h,000h,000h,000h,000h,000h,000h
0017+  1BF2 00000000000000000000
0018+  1BFC 000000000000.db 000h,000h,000h,000h,000h,000h,000h,000h,000h,000h,000h,000h,000h,000h,000h,000h
0018+  1C02 00000000000000000000
0019+  1C0C 000000000000.db 000h,000h,000h,000h,000h,000h,000h,000h,000h,000h,000h,000h,000h,000h,000h,000h
0019+  1C12 00000000000000000000
0020+  1C1C 000000000000.db 000h,000h,000h,000h,000h,000h,000h,000h,000h,000h,000h,000h,000h,000h,000h,000h
0020+  1C22 00000000000000000000
0021+  1C2C 000000000000.db 000h,000h,000h,000h,000h,000h,000h,000h,000h,000h,000h,000h,000h,000h,000h,000h
0021+  1C32 00000000000000000000
0022+  1C3C 000000000000.db 000h,000h,000h,000h,000h,000h,000h,000h,000h,000h,000h,000h,000h,000h,000h,000h
0022+  1C42 00000000000000000000
0023+  1C4C 000000000000.db 000h,000h,000h,000h,000h,000h,000h,000h,000h,000h,000h,000h,000h,000h,000h,000h
0023+  1C52 00000000000000000000
0024+  1C5C 000000000000.db 000h,000h,000h,000h,000h,000h,000h,000h,000h,000h,000h,000h,000h,000h,000h,000h
0024+  1C62 00000000000000000000
0025+  1C6C 000000000000.db 000h,000h,000h,000h,000h,000h,000h,000h,000h,000h,000h,000h,000h,000h,000h,000h
0025+  1C72 00000000000000000000
0026+  1C7C 000000000000.db 000h,000h,000h,000h,000h,000h,000h,000h,000h,000h,000h,000h,000h,000h,000h,000h
0026+  1C82 00000000000000000000
0027+  1C8C 000000000000.db 000h,000h,000h,000h,000h,000h,000h,000h,000h,000h,000h,000h,000h,000h,000h,000h
0027+  1C92 00000000000000000000
0028+  1C9C 000000000000.db 000h,000h,000h,000h,000h,000h,000h,000h,000h,000h,000h,000h,000h,000h,000h,000h
0028+  1CA2 00000000000000000000
0029+  1CAC 000000000000.db 000h,000h,000h,000h,000h,000h,000h,000h,000h,000h,000h,000h,000h,000h,000h,000h
0029+  1CB2 00000000000000000000
0030+  1CBC 000000000000.db 000h,000h,000h,000h,000h,000h,000h,000h,000h,000h,000h,000h,000h,000h,000h,000h
0030+  1CC2 00000000000000000000
0031+  1CCC 000000000000.db 000h,000h,000h,000h,000h,000h,000h,000h,000h,000h,000h,000h,000h,000h,000h,000h
0031+  1CD2 00000000000000000000
0032+  1CDC 000000000000.db 000h,000h,000h,000h,000h,000h,000h,000h,000h,000h,000h,000h,000h,000h,000h,000h
0032+  1CE2 00000000000000000000
0033+  1CEC 000000000000.db 000h,000h,000h,000h,000h,000h,000h,000h,000h,000h,000h,000h,000h,000h,000h,000h
0033+  1CF2 00000000000000000000
0034+  1CFC 000000000000.db 000h,000h,000h,000h,000h,000h,000h,000h,000h,000h,000h,000h,000h,000h,000h,000h
0034+  1D02 00000000000000000000
0035+  1D0C 000000000000.db 000h,000h,000h,000h,000h,000h,000h,000h,000h,000h,000h,000h,000h,000h,000h,000h
0035+  1D12 00000000000000000000
0036+  1D1C 000000000000.db 000h,000h,000h,000h,000h,000h,000h,000h,000h,000h,000h,000h,000h,000h,000h,000h
0036+  1D22 00000000000000000000
0037+  1D2C 000000000000.db 000h,000h,000h,000h,000h,000h,000h,000h,000h,000h,000h,000h,000h,000h,000h,000h
0037+  1D32 00000000000000000000
0038+  1D3C 000000000000.db 000h,000h,000h,000h,000h,000h,000h,000h,000h,000h,000h,000h,000h,000h,000h,000h
0038+  1D42 00000000000000000000
0039+  1D4C 000000000000.db 000h,000h,000h,000h,000h,000h,000h,000h,000h,000h,000h,000h,000h,000h,000h,000h
0039+  1D52 00000000000000000000
0040+  1D5C 000000000000.db 000h,000h,000h,000h,000h,000h,000h,000h,000h,000h,000h,000h,000h,000h,000h,000h
0040+  1D62 00000000000000000000
0041+  1D6C 000000000000.db 000h,000h,000h,000h,000h,000h,000h,000h,000h,000h,000h,000h,000h,000h,000h,000h
0041+  1D72 00000000000000000000
0042+  1D7C C800CE0ECE20.db 0C8h,000h,0CEh,00Eh,0CEh,020h,0CEh,037h,0CAh,080h,060h,005h,0CEh,03Eh,0CEh,003h
0042+  1D82 CE37CA806005CE3ECE03
0043+  1D8C CE07CE08D001.db 0CEh,007h,0CEh,008h,0D0h,001h,000h,000h,055h,088h,0D0h,000h,006h,000h,0CBh,0FFh
0043+  1D92 00005588D0000600CBFF
0044+  1D9C 60A0CBFF60A0.db 060h,0A0h,0CBh,0FFh,060h,0A0h,0D0h,001h,040h,002h,060h,075h,0CAh,07Fh,060h,06Dh
0044+  1DA2 D00140026075CA7F606D
0045+  1DAC D0018000606E.db 0D0h,001h,080h,000h,060h,06Eh,0D0h,001h,075h,030h,060h,06Fh,0D0h,001h,019h,039h
0045+  1DB2 D0017530606FD0011939
0046+  1DBC 6070CA006068.db 060h,070h,0CAh,000h,060h,068h,0D7h,000h,006h,080h,0D0h,001h,006h,0C0h,060h,06Ah
0046+  1DC2 D7000680D00106C0606A
0047+  1DCC C02C7069D600.db 0C0h,02Ch,070h,069h,0D6h,000h,006h,000h,0CAh,035h,060h,004h,020h,064h,0F6h,080h
0047+  1DD2 0600CA3560042064F680
0048+  1DDC FB2ECA006064.db 0FBh,02Eh,0CAh,000h,060h,064h,0C0h,004h,0D5h,000h,006h,000h,031h,06Ah,0C2h,00Ah
0048+  1DE2 C004D5000600316AC20A
0049+  1DEC C4035589C307.db 0C4h,003h,055h,089h,0C3h,007h,020h,080h,0CEh,035h,060h,0E0h,020h,060h,0CEh,034h
0049+  1DF2 2080CE3560E02060CE34
0050+  1DFC 60602080CE35.db 060h,060h,020h,080h,0CEh,035h,060h,0EBh,020h,060h,0CEh,034h,060h,060h,0FBh,099h
0050+  1E02 60EB2060CE346060FB99
0051+  1E0C FB3B558D60A9.db 0FBh,03Bh,055h,08Dh,060h,0A9h,07Fh,040h,055h,08Ah,0FBh,099h,0FBh,03Ah,0C2h,00Ah
0051+  1E12 7F40558AFB99FB3AC20A
0052+  1E1C 7E01558CFB99.db 07Eh,001h,055h,08Ch,0FBh,099h,0FBh,03Ah,0CEh,01Fh,0CAh,001h,010h,068h,060h,068h
0052+  1E22 FB3ACE1FCA0110686068
0053+  1E2C D00006C0F680.db 0D0h,000h,006h,0C0h,0F6h,080h,0FBh,05Eh,0D0h,000h,006h,080h,070h,06Ah,0CEh,001h
0053+  1E32 FB5ED0000680706ACE01
0054+  1E3C D70006809F68.db 0D7h,000h,006h,080h,09Fh,068h,0F8h,080h,0FBh,067h,0D7h,000h,006h,0C0h,0CEh,000h
0054+  1E42 F880FB67D70006C0CE00
0055+  1E4C 316A326A558A.db 031h,06Ah,032h,06Ah,055h,08Ah,07Fh,002h,020h,073h,060h,0A0h,020h,074h,060h,090h
0055+  1E52 7F02207360A020746090
0056+  1E5C D30007C0D400.db 0D3h,000h,007h,0C0h,0D4h,000h,007h,040h,0C5h,01Fh,055h,089h,0F7h,080h,0FBh,078h
0056+  1E62 0740C51F5589F780FB78
0057+  1E6C 2F8A3CA9386E.db 02Fh,08Ah,03Ch,0A9h,038h,06Eh,03Dh,071h,038h,06Fh,03Dh,0ACh,068h,071h,038h,070h
0057+  1E72 3D71386F3DAC68713870
0058+  1E7C CE1548754475.db 0CEh,015h,048h,075h,044h,075h,044h,075h,048h,075h,069h,0ABh,0CEh,01Bh,069h,0A9h
0058+  1E82 4475487569ABCE1B69A9
0059+  1E8C 2F8A3CA9386E.db 02Fh,08Ah,03Ch,0A9h,038h,06Eh,03Dh,072h,038h,06Fh,03Dh,0ACh,068h,072h,038h,070h
0059+  1E92 3D72386F3DAC68723870
0060+  1E9C CE1548754475.db 0CEh,015h,048h,075h,044h,075h,044h,075h,048h,075h,069h,0ABh,0CEh,01Bh,069h,0ADh
0060+  1EA2 4475487569ABCE1B69AD
0061+  1EAC FB99FB787F02.db 0FBh,099h,0FBh,078h,07Fh,002h,020h,0A0h,060h,073h,020h,080h,060h,074h,0D0h,001h
0061+  1EB2 20A0607320806074D001
0062+  1EBC 0740606AF780.db 007h,040h,060h,06Ah,0F7h,080h,0FBh,0A8h,0D0h,001h,044h,000h,060h,076h,060h,077h
0062+  1EC2 FBA8D001440060766077
0063+  1ECC C002D10007C0.db 0C0h,002h,0D1h,000h,007h,0C0h,0D0h,001h,001h,0FFh,0CBh,01Fh,04Dh,0E0h,060h,065h
0063+  1ED2 D00101FFCB1F4DE06065
0064+  1EDC 4065C1097F01.db 040h,065h,0C1h,009h,07Fh,001h,0CEh,034h,05Fh,080h,0FBh,0B2h,071h,065h,0C0h,002h
0064+  1EE2 CE345F80FBB27165C002
0065+  1EEC D10007C1D001.db 0D1h,000h,007h,0C1h,0D0h,001h,001h,0FFh,0CBh,01Fh,04Dh,0E0h,060h,066h,040h,066h
0065+  1EF2 01FFCB1F4DE060664066
0066+  1EFC C1095589DF05.db 0C1h,009h,055h,089h,0DFh,005h,003h,0FFh,07Fh,001h,0CEh,034h,05Fh,080h,0FBh,0C4h
0066+  1F02 03FF7F01CE345F80FBC4
0067+  1F0C 71662B65D005.db 071h,066h,02Bh,065h,0D0h,005h,004h,000h,010h,076h,05Fh,080h,0FBh,0D4h,02Bh,065h
0067+  1F12 040010765F80FBD42B65
0068+  1F1C D0050400FF80.db 0D0h,005h,004h,000h,0FFh,080h,0FBh,0D9h,020h,076h,0CDh,00Fh,05Eh,080h,0FBh,0D9h
0068+  1F22 FBD92076CD0F5E80FBD9
0069+  1F2C CA0060762B66.db 0CAh,000h,060h,076h,02Bh,066h,0D0h,005h,004h,000h,010h,077h,05Fh,080h,0FBh,0E5h
0069+  1F32 D005040010775F80FBE5
0070+  1F3C 2B66D0050400.db 02Bh,066h,0D0h,005h,004h,000h,0FFh,080h,0FBh,0EAh,020h,077h,0CDh,00Fh,05Eh,080h
0070+  1F42 FF80FBEA2077CD0F5E80
0071+  1F4C FBEACA006077.db 0FBh,0EAh,0CAh,000h,060h,077h,025h,076h,068h,078h,020h,078h,0D0h,002h,0FCh,0AEh
0071+  1F52 257668782078D002FCAE
0072+  1F5C 587925776878.db 058h,079h,025h,077h,068h,078h,020h,078h,0D0h,002h,0FCh,0B9h,058h,07Ah,0D0h,000h
0072+  1F62 2078D002FCB9587AD000
0073+  1F6C FFFF55882079.db 0FFh,0FFh,055h,088h,020h,079h,04Dh,07Ah,060h,080h,0DEh,001h,000h,001h,030h,065h
0073+  1F72 4D7A6080DE0100013065
0074+  1F7C 55887F01FB90.db 055h,088h,07Fh,001h,0FBh,090h,0FCh,006h,0FFh,080h,0FCh,00Dh,0FBh,090h,0FCh,00Bh
0074+  1F82 FC06FF80FC0DFB90FC0B
0075+  1F8C FF80FC0DCE19.db 0FFh,080h,0FCh,00Dh,0CEh,019h,0FBh,090h,0FCh,00Ah,060h,060h,03Ch,060h,020h,065h
0075+  1F92 FB90FC0A60603C602065
0076+  1F9C D002FCA65865.db 0D0h,002h,0FCh,0A6h,058h,065h,0C0h,006h,055h,089h,028h,065h,0D0h,004h,004h,000h
0076+  1FA2 C00655892865D0040400
0077+  1FAC 6067C208316A.db 060h,067h,0C2h,008h,031h,06Ah,0FEh,080h,0FCh,074h,029h,065h,0D0h,004h,004h,000h
0077+  1FB2 FE80FC742965D0040400
0078+  1FBC 6067C208316A.db 060h,067h,0C2h,008h,031h,06Ah,07Eh,002h,0FEh,080h,0FCh,074h,02Ah,065h,0D0h,004h
0078+  1FC2 7E02FE80FC742A65D004
0079+  1FCC 04006067C208.db 004h,000h,060h,067h,0C2h,008h,031h,06Ah,07Eh,004h,0FEh,080h,0FCh,074h,0CAh,000h
0079+  1FD2 316A7E04FE80FC74CA00
0080+  1FDC 6067C204C002.db 060h,067h,0C2h,004h,0C0h,002h,031h,06Ah,07Eh,036h,0FEh,080h,0FCh,074h,0DEh,001h
0080+  1FE2 316A7E36FE80FC74DE01
0081+  1FEC 000130665588.db 000h,001h,030h,066h,055h,088h,07Fh,001h,0FBh,090h,0FCh,040h,0FFh,080h,0FCh,047h
0081+  1FF2 7F01FB90FC40FF80FC47
0082+  1FFC FB90FC45FF80.db 0FBh,090h,0FCh,045h,0FFh,080h,0FCh,047h,0CEh,019h,0FBh,090h,0FCh,044h,060h,060h
0082+  2002 FC47CE19FB90FC446060
0083+  200C 3C602066D002.db 03Ch,060h,020h,066h,0D0h,002h,0FCh,0A6h,058h,066h,0C0h,006h,055h,089h,028h,066h
0083+  2012 FCA65866C00655892866
0084+  201C D00404006067.db 0D0h,004h,004h,000h,060h,067h,0C2h,008h,031h,06Ah,07Eh,001h,0FEh,080h,0FCh,074h
0084+  2022 C208316A7E01FE80FC74
0085+  202C 2966D0040400.db 029h,066h,0D0h,004h,004h,000h,060h,067h,0C2h,008h,031h,06Ah,07Eh,003h,0FEh,080h
0085+  2032 6067C208316A7E03FE80
0086+  203C FC742A66D004.db 0FCh,074h,02Ah,066h,0D0h,004h,004h,000h,060h,067h,0C2h,008h,031h,06Ah,07Eh,005h
0086+  2042 04006067C208316A7E05
0087+  204C FE80FC74CA00.db 0FEh,080h,0FCh,074h,0CAh,000h,060h,067h,0C2h,004h,0C0h,002h,031h,06Ah,07Eh,037h
0087+  2052 6067C204C002316A7E37
0088+  205C FE80FC74FF80.db 0FEh,080h,0FCh,074h,0FFh,080h,0FBh,02Eh,0CFh,080h,07Dh,080h,02Ch,080h,068h,080h
0088+  2062 FB2ECF807D802C806880
0089+  206C 20804E6DD002.db 020h,080h,04Eh,06Dh,0D0h,002h,0FCh,0C4h,058h,080h,040h,067h,048h,080h,0CEh,015h
0089+  2072 FCC4588040674880CE15
0090+  207C 68EAFB99FC74.db 068h,0EAh,0FBh,099h,0FCh,074h,0CEh,026h,079h,061h,077h,06Ch,0C7h,02Bh,077h,069h
0090+  2082 CE267961776CC72B7769
0091+  208C 376C5161CE00.db 037h,06Ch,051h,061h,0CEh,000h,0CEh,026h,079h,061h,077h,06Ch,055h,08Eh,037h,0AFh
0091+  2092 CE267961776C558E37AF
0092+  209C 77013769FB90.db 077h,001h,037h,069h,0FBh,090h,0FCh,098h,0C7h,02Ch,0D6h,000h,006h,000h,077h,064h
0092+  20A2 FC98C72CD60006007764
0093+  20AC 7769376C5161.db 077h,069h,037h,06Ch,051h,061h,0CEh,000h,0CEh,026h,079h,061h,076h,06Bh,055h,08Fh
0093+  20B2 CE00CE267961766B558F
0094+  20BC 360076A0366B.db 036h,000h,076h,0A0h,036h,06Bh,051h,061h,0CEh,000h,0CEh,026h,000h,000h,000h,001h
0094+  20C2 5161CE00CE2600000001
0095+  20CC 000200040003.db 000h,002h,000h,004h,000h,003h,000h,005h,000h,006h,000h,007h,000h,000h,000h,000h
0095+  20D2 00050006000700000000
0096+  20DC 000000000000.db 000h,000h,000h,000h,000h,000h,000h,080h,000h,0A0h,000h,0A8h,000h,0AAh,000h,0AAh
0096+  20E2 008000A000A800AA00AA
0097+  20EC 00AA00000000.db 000h,0AAh,000h,000h,000h,000h,000h,000h,000h,000h,000h,000h,000h,040h,000h,050h
0097+  20F2 00000000000000400050
0098+  20FC 005400550055.db 000h,054h,000h,055h,000h,055h,000h,055h,000h,000h,004h,000h,004h,000h,000h,000h
0098+  2102 00550000040004000000
0099+  210C 040000000000.db 004h,000h,000h,000h,000h,000h,004h,000h,004h,000h,000h,000h,000h,000h,004h,000h
0099+  2112 04000400000000000400
0100+  211C 000004000400.db 000h,000h,004h,000h,004h,000h,000h,000h,004h,000h,000h,000h,000h,000h,004h,000h
0100+  2122 00000400000000000400
0101+  212C 000004000400.db 000h,000h,004h,000h,004h,000h,000h,000h,000h,000h,004h,000h,004h,000h,000h,000h
0101+  2132 00000000040004000000
0102+  213C 040000000000.db 004h,000h,000h,000h,000h,000h,004h,000h,004h,000h,000h,000h,000h,000h,004h,000h
0102+  2142 04000400000000000400
0103+  214C 000004000400.db 000h,000h,004h,000h,004h,000h,000h,000h,000h,000h,004h,000h,004h,000h,000h,000h
0103+  2152 00000000040004000000
0104+  215C 040000000000.db 004h,000h,000h,000h,000h,000h,004h,000h,000h,000h,004h,000h,004h,000h,000h,000h
0104+  2162 04000000040004000000
0105+  216C 040000000000.db 004h,000h,000h,000h,000h,000h,004h,000h,004h,000h,000h,000h,000h,000h,004h,000h
0105+  2172 04000400000000000400
0106+  217C 000004000400.db 000h,000h,004h,000h,004h,000h,000h,000h,004h,000h,000h,000h,000h,000h,004h,000h
0106+  2182 00000400000000000400
0107+  218C 000004000400.db 000h,000h,004h,000h,004h,000h,000h,000h,000h,000h,004h,000h,004h,000h,000h,000h
0107+  2192 00000000040004000000
0108+  219C 040000000000.db 004h,000h,000h,000h,000h,000h,004h,000h,000h,000h,004h,000h,004h,000h,000h,000h
0108+  21A2 04000000040004000000
0109+  21AC 040000000000.db 004h,000h,000h,000h,000h,000h,004h,000h,004h,000h,000h,000h,000h,000h,004h,000h
0109+  21B2 04000400000000000400
0110+  21BC 000004000400.db 000h,000h,004h,000h,004h,000h,000h,000h,000h,000h,004h,000h,004h,000h,000h,000h
0110+  21C2 00000000040004000000
0111+  21CC 040000000000.db 004h,000h,000h,000h,000h,000h,004h,000h,004h,000h,000h,000h,000h,000h,004h,000h
0111+  21D2 04000400000000000400
0112+  21DC 000004000400.db 000h,000h,004h,000h,004h,000h,000h,000h,004h,000h,000h,000h,000h,000h,004h,000h
0112+  21E2 00000400000000000400
0113+  21EC 000004000400.db 000h,000h,004h,000h,004h,000h,000h,000h,000h,000h,004h,000h,004h,000h,000h,000h
0113+  21F2 00000000040004000000
0114+  21FC 040000000000.db 004h,000h,000h,000h,000h,000h,004h,000h,000h,000h
0114+  2202 04000000
0115+  2206             
0116+  2206 00          DSP_0DBEND:		.db	0
0117+  2207             
0118+  2207             ;------------------- end of file -----------------------
0119+  2207             
0798   2207             #include "dsp_6db.asm"
0001+  2207             ;--------------------------------------------------
0002+  2207             ;  File: DSP_6DB.asm
0003+  2207             ;  Date: Sun Oct 11 20:44:51 1998
0004+  2207             ;
0005+  2207             ;  Produced by bin2asm.exe
0006+  2207             ;--------------------------------------------------
0007+  2207             
0008+  2207             DSP_6DB:
0009+  2207             
0010+  2207 FF80FB00FF80.db 0FFh,080h,0FBh,000h,0FFh,080h,0FCh,084h,0FFh,080h,0FBh,000h,0FFh,080h,0FBh,000h
0010+  220D FC84FF80FB00FF80FB00
0011+  2217 FF80FB00FF80.db 0FFh,080h,0FBh,000h,0FFh,080h,0FCh,09Dh,0FFh,080h,0FCh,08Ch,000h,000h,000h,000h
0011+  221D FC9DFF80FC8C00000000
0012+  2227 000000000000.db 000h,000h,000h,000h,000h,000h,000h,000h,000h,000h,000h,000h,000h,000h,000h,000h
0012+  222D 00000000000000000000
0013+  2237 000000000000.db 000h,000h,000h,000h,000h,000h,000h,000h,000h,000h,000h,000h,000h,000h,000h,000h
0013+  223D 00000000000000000000
0014+  2247 000000000000.db 000h,000h,000h,000h,000h,000h,000h,000h,000h,000h,000h,000h,000h,000h,000h,000h
0014+  224D 00000000000000000000
0015+  2257 000000000000.db 000h,000h,000h,000h,000h,000h,000h,000h,000h,000h,000h,000h,000h,000h,000h,000h
0015+  225D 00000000000000000000
0016+  2267 000000000000.db 000h,000h,000h,000h,000h,000h,000h,000h,000h,000h,000h,000h,000h,000h,000h,000h
0016+  226D 00000000000000000000
0017+  2277 000000000000.db 000h,000h,000h,000h,000h,000h,000h,000h,000h,000h,000h,000h,000h,000h,000h,000h
0017+  227D 00000000000000000000
0018+  2287 000000000000.db 000h,000h,000h,000h,000h,000h,000h,000h,000h,000h,000h,000h,000h,000h,000h,000h
0018+  228D 00000000000000000000
0019+  2297 000000000000.db 000h,000h,000h,000h,000h,000h,000h,000h,000h,000h,000h,000h,000h,000h,000h,000h
0019+  229D 00000000000000000000
0020+  22A7 000000000000.db 000h,000h,000h,000h,000h,000h,000h,000h,000h,000h,000h,000h,000h,000h,000h,000h
0020+  22AD 00000000000000000000
0021+  22B7 000000000000.db 000h,000h,000h,000h,000h,000h,000h,000h,000h,000h,000h,000h,000h,000h,000h,000h
0021+  22BD 00000000000000000000
0022+  22C7 000000000000.db 000h,000h,000h,000h,000h,000h,000h,000h,000h,000h,000h,000h,000h,000h,000h,000h
0022+  22CD 00000000000000000000
0023+  22D7 000000000000.db 000h,000h,000h,000h,000h,000h,000h,000h,000h,000h,000h,000h,000h,000h,000h,000h
0023+  22DD 00000000000000000000
0024+  22E7 000000000000.db 000h,000h,000h,000h,000h,000h,000h,000h,000h,000h,000h,000h,000h,000h,000h,000h
0024+  22ED 00000000000000000000
0025+  22F7 000000000000.db 000h,000h,000h,000h,000h,000h,000h,000h,000h,000h,000h,000h,000h,000h,000h,000h
0025+  22FD 00000000000000000000
0026+  2307 000000000000.db 000h,000h,000h,000h,000h,000h,000h,000h,000h,000h,000h,000h,000h,000h,000h,000h
0026+  230D 00000000000000000000
0027+  2317 000000000000.db 000h,000h,000h,000h,000h,000h,000h,000h,000h,000h,000h,000h,000h,000h,000h,000h
0027+  231D 00000000000000000000
0028+  2327 000000000000.db 000h,000h,000h,000h,000h,000h,000h,000h,000h,000h,000h,000h,000h,000h,000h,000h
0028+  232D 00000000000000000000
0029+  2337 000000000000.db 000h,000h,000h,000h,000h,000h,000h,000h,000h,000h,000h,000h,000h,000h,000h,000h
0029+  233D 00000000000000000000
0030+  2347 000000000000.db 000h,000h,000h,000h,000h,000h,000h,000h,000h,000h,000h,000h,000h,000h,000h,000h
0030+  234D 00000000000000000000
0031+  2357 000000000000.db 000h,000h,000h,000h,000h,000h,000h,000h,000h,000h,000h,000h,000h,000h,000h,000h
0031+  235D 00000000000000000000
0032+  2367 000000000000.db 000h,000h,000h,000h,000h,000h,000h,000h,000h,000h,000h,000h,000h,000h,000h,000h
0032+  236D 00000000000000000000
0033+  2377 000000000000.db 000h,000h,000h,000h,000h,000h,000h,000h,000h,000h,000h,000h,000h,000h,000h,000h
0033+  237D 00000000000000000000
0034+  2387 000000000000.db 000h,000h,000h,000h,000h,000h,000h,000h,000h,000h,000h,000h,000h,000h,000h,000h
0034+  238D 00000000000000000000
0035+  2397 000000000000.db 000h,000h,000h,000h,000h,000h,000h,000h,000h,000h,000h,000h,000h,000h,000h,000h
0035+  239D 00000000000000000000
0036+  23A7 000000000000.db 000h,000h,000h,000h,000h,000h,000h,000h,000h,000h,000h,000h,000h,000h,000h,000h
0036+  23AD 00000000000000000000
0037+  23B7 000000000000.db 000h,000h,000h,000h,000h,000h,000h,000h,000h,000h,000h,000h,000h,000h,000h,000h
0037+  23BD 00000000000000000000
0038+  23C7 000000000000.db 000h,000h,000h,000h,000h,000h,000h,000h,000h,000h,000h,000h,000h,000h,000h,000h
0038+  23CD 00000000000000000000
0039+  23D7 000000000000.db 000h,000h,000h,000h,000h,000h,000h,000h,000h,000h,000h,000h,000h,000h,000h,000h
0039+  23DD 00000000000000000000
0040+  23E7 000000000000.db 000h,000h,000h,000h,000h,000h,000h,000h,000h,000h,000h,000h,000h,000h,000h,000h
0040+  23ED 00000000000000000000
0041+  23F7 000000000000.db 000h,000h,000h,000h,000h,000h,000h,000h,000h,000h,000h,000h,000h,000h,000h,000h
0041+  23FD 00000000000000000000
0042+  2407 C800CE0ECE20.db 0C8h,000h,0CEh,00Eh,0CEh,020h,0CEh,037h,0CAh,080h,060h,005h,0CEh,03Eh,0CEh,003h
0042+  240D CE37CA806005CE3ECE03
0043+  2417 CE07CE08D001.db 0CEh,007h,0CEh,008h,0D0h,001h,000h,000h,055h,088h,0D0h,000h,006h,000h,0CBh,0FFh
0043+  241D 00005588D0000600CBFF
0044+  2427 60A0CBFF60A0.db 060h,0A0h,0CBh,0FFh,060h,0A0h,0D0h,001h,060h,002h,060h,075h,0CAh,07Fh,060h,06Dh
0044+  242D D00160026075CA7F606D
0045+  2437 D0018000606E.db 0D0h,001h,080h,000h,060h,06Eh,0D0h,001h,075h,030h,060h,06Fh,0D0h,001h,019h,039h
0045+  243D D0017530606FD0011939
0046+  2447 6070CA006068.db 060h,070h,0CAh,000h,060h,068h,0D7h,000h,006h,080h,0D0h,001h,006h,0C0h,060h,06Ah
0046+  244D D7000680D00106C0606A
0047+  2457 C02C7069D600.db 0C0h,02Ch,070h,069h,0D6h,000h,006h,000h,0CAh,035h,060h,004h,020h,064h,0F6h,080h
0047+  245D 0600CA3560042064F680
0048+  2467 FB2ECA006064.db 0FBh,02Eh,0CAh,000h,060h,064h,0C0h,004h,0D5h,000h,006h,000h,031h,06Ah,0C2h,00Ah
0048+  246D C004D5000600316AC20A
0049+  2477 C4035589C307.db 0C4h,003h,055h,089h,0C3h,007h,020h,080h,0CEh,035h,060h,0E0h,020h,060h,0CEh,034h
0049+  247D 2080CE3560E02060CE34
0050+  2487 60602080CE35.db 060h,060h,020h,080h,0CEh,035h,060h,0EBh,020h,060h,0CEh,034h,060h,060h,0FBh,099h
0050+  248D 60EB2060CE346060FB99
0051+  2497 FB3B558D60A9.db 0FBh,03Bh,055h,08Dh,060h,0A9h,07Fh,040h,055h,08Ah,0FBh,099h,0FBh,03Ah,0C2h,00Ah
0051+  249D 7F40558AFB99FB3AC20A
0052+  24A7 7E01558CFB99.db 07Eh,001h,055h,08Ch,0FBh,099h,0FBh,03Ah,0CEh,01Fh,0CAh,001h,010h,068h,060h,068h
0052+  24AD FB3ACE1FCA0110686068
0053+  24B7 D00006C0F680.db 0D0h,000h,006h,0C0h,0F6h,080h,0FBh,05Eh,0D0h,000h,006h,080h,070h,06Ah,0CEh,001h
0053+  24BD FB5ED0000680706ACE01
0054+  24C7 D70006809F68.db 0D7h,000h,006h,080h,09Fh,068h,0F8h,080h,0FBh,067h,0D7h,000h,006h,0C0h,0CEh,000h
0054+  24CD F880FB67D70006C0CE00
0055+  24D7 316A326A558A.db 031h,06Ah,032h,06Ah,055h,08Ah,07Fh,002h,020h,073h,060h,0A0h,020h,074h,060h,090h
0055+  24DD 7F02207360A020746090
0056+  24E7 D30007C0D400.db 0D3h,000h,007h,0C0h,0D4h,000h,007h,040h,0C5h,01Fh,055h,089h,0F7h,080h,0FBh,078h
0056+  24ED 0740C51F5589F780FB78
0057+  24F7 2F8A3CA9386E.db 02Fh,08Ah,03Ch,0A9h,038h,06Eh,03Dh,071h,038h,06Fh,03Dh,0ACh,068h,071h,038h,070h
0057+  24FD 3D71386F3DAC68713870
0058+  2507 CE1548754475.db 0CEh,015h,048h,075h,044h,075h,044h,075h,048h,075h,06Ah,0ABh,0CEh,01Bh,06Ah,0A9h
0058+  250D 447548756AABCE1B6AA9
0059+  2517 2F8A3CA9386E.db 02Fh,08Ah,03Ch,0A9h,038h,06Eh,03Dh,072h,038h,06Fh,03Dh,0ACh,068h,072h,038h,070h
0059+  251D 3D72386F3DAC68723870
0060+  2527 CE1548754475.db 0CEh,015h,048h,075h,044h,075h,044h,075h,048h,075h,06Ah,0ABh,0CEh,01Bh,06Ah,0ADh
0060+  252D 447548756AABCE1B6AAD
0061+  2537 FB99FB787F02.db 0FBh,099h,0FBh,078h,07Fh,002h,020h,0A0h,060h,073h,020h,080h,060h,074h,0D0h,001h
0061+  253D 20A0607320806074D001
0062+  2547 0740606AF780.db 007h,040h,060h,06Ah,0F7h,080h,0FBh,0A8h,0D0h,001h,044h,000h,060h,076h,060h,077h
0062+  254D FBA8D001440060766077
0063+  2557 C002D10007C0.db 0C0h,002h,0D1h,000h,007h,0C0h,0D0h,001h,001h,0FFh,0CBh,01Fh,04Dh,0E0h,060h,065h
0063+  255D D00101FFCB1F4DE06065
0064+  2567 4065C1097F01.db 040h,065h,0C1h,009h,07Fh,001h,0CEh,034h,05Fh,080h,0FBh,0B2h,071h,065h,0C0h,002h
0064+  256D CE345F80FBB27165C002
0065+  2577 D10007C1D001.db 0D1h,000h,007h,0C1h,0D0h,001h,001h,0FFh,0CBh,01Fh,04Dh,0E0h,060h,066h,040h,066h
0065+  257D 01FFCB1F4DE060664066
0066+  2587 C1095589DF05.db 0C1h,009h,055h,089h,0DFh,005h,003h,0FFh,07Fh,001h,0CEh,034h,05Fh,080h,0FBh,0C4h
0066+  258D 03FF7F01CE345F80FBC4
0067+  2597 71662B65D005.db 071h,066h,02Bh,065h,0D0h,005h,004h,000h,010h,076h,05Fh,080h,0FBh,0D4h,02Bh,065h
0067+  259D 040010765F80FBD42B65
0068+  25A7 D0050400FF80.db 0D0h,005h,004h,000h,0FFh,080h,0FBh,0D9h,020h,076h,0CDh,00Fh,05Eh,080h,0FBh,0D9h
0068+  25AD FBD92076CD0F5E80FBD9
0069+  25B7 CA0060762B66.db 0CAh,000h,060h,076h,02Bh,066h,0D0h,005h,004h,000h,010h,077h,05Fh,080h,0FBh,0E5h
0069+  25BD D005040010775F80FBE5
0070+  25C7 2B66D0050400.db 02Bh,066h,0D0h,005h,004h,000h,0FFh,080h,0FBh,0EAh,020h,077h,0CDh,00Fh,05Eh,080h
0070+  25CD FF80FBEA2077CD0F5E80
0071+  25D7 FBEACA006077.db 0FBh,0EAh,0CAh,000h,060h,077h,025h,076h,068h,078h,020h,078h,0D0h,002h,0FCh,0AEh
0071+  25DD 257668782078D002FCAE
0072+  25E7 587925776878.db 058h,079h,025h,077h,068h,078h,020h,078h,0D0h,002h,0FCh,0B9h,058h,07Ah,0D0h,000h
0072+  25ED 2078D002FCB9587AD000
0073+  25F7 FFFF55882079.db 0FFh,0FFh,055h,088h,020h,079h,04Dh,07Ah,060h,080h,0DEh,001h,000h,001h,030h,065h
0073+  25FD 4D7A6080DE0100013065
0074+  2607 55887F01FB90.db 055h,088h,07Fh,001h,0FBh,090h,0FCh,006h,0FFh,080h,0FCh,00Dh,0FBh,090h,0FCh,00Bh
0074+  260D FC06FF80FC0DFB90FC0B
0075+  2617 FF80FC0DCE19.db 0FFh,080h,0FCh,00Dh,0CEh,019h,0FBh,090h,0FCh,00Ah,060h,060h,03Ch,060h,020h,065h
0075+  261D FB90FC0A60603C602065
0076+  2627 D002FCA65865.db 0D0h,002h,0FCh,0A6h,058h,065h,0C0h,006h,055h,089h,028h,065h,0D0h,004h,004h,000h
0076+  262D C00655892865D0040400
0077+  2637 6067C208316A.db 060h,067h,0C2h,008h,031h,06Ah,0FEh,080h,0FCh,074h,029h,065h,0D0h,004h,004h,000h
0077+  263D FE80FC742965D0040400
0078+  2647 6067C208316A.db 060h,067h,0C2h,008h,031h,06Ah,07Eh,002h,0FEh,080h,0FCh,074h,02Ah,065h,0D0h,004h
0078+  264D 7E02FE80FC742A65D004
0079+  2657 04006067C208.db 004h,000h,060h,067h,0C2h,008h,031h,06Ah,07Eh,004h,0FEh,080h,0FCh,074h,0CAh,000h
0079+  265D 316A7E04FE80FC74CA00
0080+  2667 6067C204C002.db 060h,067h,0C2h,004h,0C0h,002h,031h,06Ah,07Eh,036h,0FEh,080h,0FCh,074h,0DEh,001h
0080+  266D 316A7E36FE80FC74DE01
0081+  2677 000130665588.db 000h,001h,030h,066h,055h,088h,07Fh,001h,0FBh,090h,0FCh,040h,0FFh,080h,0FCh,047h
0081+  267D 7F01FB90FC40FF80FC47
0082+  2687 FB90FC45FF80.db 0FBh,090h,0FCh,045h,0FFh,080h,0FCh,047h,0CEh,019h,0FBh,090h,0FCh,044h,060h,060h
0082+  268D FC47CE19FB90FC446060
0083+  2697 3C602066D002.db 03Ch,060h,020h,066h,0D0h,002h,0FCh,0A6h,058h,066h,0C0h,006h,055h,089h,028h,066h
0083+  269D FCA65866C00655892866
0084+  26A7 D00404006067.db 0D0h,004h,004h,000h,060h,067h,0C2h,008h,031h,06Ah,07Eh,001h,0FEh,080h,0FCh,074h
0084+  26AD C208316A7E01FE80FC74
0085+  26B7 2966D0040400.db 029h,066h,0D0h,004h,004h,000h,060h,067h,0C2h,008h,031h,06Ah,07Eh,003h,0FEh,080h
0085+  26BD 6067C208316A7E03FE80
0086+  26C7 FC742A66D004.db 0FCh,074h,02Ah,066h,0D0h,004h,004h,000h,060h,067h,0C2h,008h,031h,06Ah,07Eh,005h
0086+  26CD 04006067C208316A7E05
0087+  26D7 FE80FC74CA00.db 0FEh,080h,0FCh,074h,0CAh,000h,060h,067h,0C2h,004h,0C0h,002h,031h,06Ah,07Eh,037h
0087+  26DD 6067C204C002316A7E37
0088+  26E7 FE80FC74FF80.db 0FEh,080h,0FCh,074h,0FFh,080h,0FBh,02Eh,0CFh,080h,07Dh,080h,02Ch,080h,068h,080h
0088+  26ED FB2ECF807D802C806880
0089+  26F7 20804E6DD002.db 020h,080h,04Eh,06Dh,0D0h,002h,0FCh,0C4h,058h,080h,040h,067h,048h,080h,0CEh,015h
0089+  26FD FCC4588040674880CE15
0090+  2707 68EAFB99FC74.db 068h,0EAh,0FBh,099h,0FCh,074h,0CEh,026h,079h,061h,077h,06Ch,0C7h,02Bh,077h,069h
0090+  270D CE267961776CC72B7769
0091+  2717 376C5161CE00.db 037h,06Ch,051h,061h,0CEh,000h,0CEh,026h,079h,061h,077h,06Ch,055h,08Eh,037h,0AFh
0091+  271D CE267961776C558E37AF
0092+  2727 77013769FB90.db 077h,001h,037h,069h,0FBh,090h,0FCh,098h,0C7h,02Ch,0D6h,000h,006h,000h,077h,064h
0092+  272D FC98C72CD60006007764
0093+  2737 7769376C5161.db 077h,069h,037h,06Ch,051h,061h,0CEh,000h,0CEh,026h,079h,061h,076h,06Bh,055h,08Fh
0093+  273D CE00CE267961766B558F
0094+  2747 360076A0366B.db 036h,000h,076h,0A0h,036h,06Bh,051h,061h,0CEh,000h,0CEh,026h,000h,000h,000h,001h
0094+  274D 5161CE00CE2600000001
0095+  2757 000200040003.db 000h,002h,000h,004h,000h,003h,000h,005h,000h,006h,000h,007h,000h,000h,000h,000h
0095+  275D 00050006000700000000
0096+  2767 000000000000.db 000h,000h,000h,000h,000h,000h,000h,080h,000h,0A0h,000h,0A8h,000h,0AAh,000h,0AAh
0096+  276D 008000A000A800AA00AA
0097+  2777 00AA00000000.db 000h,0AAh,000h,000h,000h,000h,000h,000h,000h,000h,000h,000h,000h,040h,000h,050h
0097+  277D 00000000000000400050
0098+  2787 005400550055.db 000h,054h,000h,055h,000h,055h,000h,055h,000h,000h,004h,000h,004h,000h,000h,000h
0098+  278D 00550000040004000000
0099+  2797 040000000000.db 004h,000h,000h,000h,000h,000h,004h,000h,004h,000h,000h,000h,000h,000h,004h,000h
0099+  279D 04000400000000000400
0100+  27A7 000004000400.db 000h,000h,004h,000h,004h,000h,000h,000h,004h,000h,000h,000h,000h,000h,004h,000h
0100+  27AD 00000400000000000400
0101+  27B7 000004000400.db 000h,000h,004h,000h,004h,000h,000h,000h,000h,000h,004h,000h,004h,000h,000h,000h
0101+  27BD 00000000040004000000
0102+  27C7 040000000000.db 004h,000h,000h,000h,000h,000h,004h,000h,004h,000h,000h,000h,000h,000h,004h,000h
0102+  27CD 04000400000000000400
0103+  27D7 000004000400.db 000h,000h,004h,000h,004h,000h,000h,000h,000h,000h,004h,000h,004h,000h,000h,000h
0103+  27DD 00000000040004000000
0104+  27E7 040000000000.db 004h,000h,000h,000h,000h,000h,004h,000h,000h,000h,004h,000h,004h,000h,000h,000h
0104+  27ED 04000000040004000000
0105+  27F7 040000000000.db 004h,000h,000h,000h,000h,000h,004h,000h,004h,000h,000h,000h,000h,000h,004h,000h
0105+  27FD 04000400000000000400
0106+  2807 000004000400.db 000h,000h,004h,000h,004h,000h,000h,000h,004h,000h,000h,000h,000h,000h,004h,000h
0106+  280D 00000400000000000400
0107+  2817 000004000400.db 000h,000h,004h,000h,004h,000h,000h,000h,000h,000h,004h,000h,004h,000h,000h,000h
0107+  281D 00000000040004000000
0108+  2827 040000000000.db 004h,000h,000h,000h,000h,000h,004h,000h,000h,000h,004h,000h,004h,000h,000h,000h
0108+  282D 04000000040004000000
0109+  2837 040000000000.db 004h,000h,000h,000h,000h,000h,004h,000h,004h,000h,000h,000h,000h,000h,004h,000h
0109+  283D 04000400000000000400
0110+  2847 000004000400.db 000h,000h,004h,000h,004h,000h,000h,000h,000h,000h,004h,000h,004h,000h,000h,000h
0110+  284D 00000000040004000000
0111+  2857 040000000000.db 004h,000h,000h,000h,000h,000h,004h,000h,004h,000h,000h,000h,000h,000h,004h,000h
0111+  285D 04000400000000000400
0112+  2867 000004000400.db 000h,000h,004h,000h,004h,000h,000h,000h,004h,000h,000h,000h,000h,000h,004h,000h
0112+  286D 00000400000000000400
0113+  2877 000004000400.db 000h,000h,004h,000h,004h,000h,000h,000h,000h,000h,004h,000h,004h,000h,000h,000h
0113+  287D 00000000040004000000
0114+  2887 040000000000.db 004h,000h,000h,000h,000h,000h,004h,000h,000h,000h
0114+  288D 04000000
0115+  2891             
0116+  2891 00          DSP_6DBEND:		.db	0
0117+  2892             
0118+  2892             ;------------------- end of file -----------------------
0119+  2892             
0799   2892             #include "dsp_12db.asm"
0001+  2892             ;--------------------------------------------------
0002+  2892             ;  File: DSP_12DB.asm
0003+  2892             ;  Date: Sun Oct 11 20:44:51 1998
0004+  2892             ;
0005+  2892             ;  Produced by bin2asm.exe
0006+  2892             ;--------------------------------------------------
0007+  2892             
0008+  2892             DSP_12DB:
0009+  2892             
0010+  2892 FF80FB00FF80.db 0FFh,080h,0FBh,000h,0FFh,080h,0FCh,084h,0FFh,080h,0FBh,000h,0FFh,080h,0FBh,000h
0010+  2898 FC84FF80FB00FF80FB00
0011+  28A2 FF80FB00FF80.db 0FFh,080h,0FBh,000h,0FFh,080h,0FCh,09Dh,0FFh,080h,0FCh,08Ch,000h,000h,000h,000h
0011+  28A8 FC9DFF80FC8C00000000
0012+  28B2 000000000000.db 000h,000h,000h,000h,000h,000h,000h,000h,000h,000h,000h,000h,000h,000h,000h,000h
0012+  28B8 00000000000000000000
0013+  28C2 000000000000.db 000h,000h,000h,000h,000h,000h,000h,000h,000h,000h,000h,000h,000h,000h,000h,000h
0013+  28C8 00000000000000000000
0014+  28D2 000000000000.db 000h,000h,000h,000h,000h,000h,000h,000h,000h,000h,000h,000h,000h,000h,000h,000h
0014+  28D8 00000000000000000000
0015+  28E2 000000000000.db 000h,000h,000h,000h,000h,000h,000h,000h,000h,000h,000h,000h,000h,000h,000h,000h
0015+  28E8 00000000000000000000
0016+  28F2 000000000000.db 000h,000h,000h,000h,000h,000h,000h,000h,000h,000h,000h,000h,000h,000h,000h,000h
0016+  28F8 00000000000000000000
0017+  2902 000000000000.db 000h,000h,000h,000h,000h,000h,000h,000h,000h,000h,000h,000h,000h,000h,000h,000h
0017+  2908 00000000000000000000
0018+  2912 000000000000.db 000h,000h,000h,000h,000h,000h,000h,000h,000h,000h,000h,000h,000h,000h,000h,000h
0018+  2918 00000000000000000000
0019+  2922 000000000000.db 000h,000h,000h,000h,000h,000h,000h,000h,000h,000h,000h,000h,000h,000h,000h,000h
0019+  2928 00000000000000000000
0020+  2932 000000000000.db 000h,000h,000h,000h,000h,000h,000h,000h,000h,000h,000h,000h,000h,000h,000h,000h
0020+  2938 00000000000000000000
0021+  2942 000000000000.db 000h,000h,000h,000h,000h,000h,000h,000h,000h,000h,000h,000h,000h,000h,000h,000h
0021+  2948 00000000000000000000
0022+  2952 000000000000.db 000h,000h,000h,000h,000h,000h,000h,000h,000h,000h,000h,000h,000h,000h,000h,000h
0022+  2958 00000000000000000000
0023+  2962 000000000000.db 000h,000h,000h,000h,000h,000h,000h,000h,000h,000h,000h,000h,000h,000h,000h,000h
0023+  2968 00000000000000000000
0024+  2972 000000000000.db 000h,000h,000h,000h,000h,000h,000h,000h,000h,000h,000h,000h,000h,000h,000h,000h
0024+  2978 00000000000000000000
0025+  2982 000000000000.db 000h,000h,000h,000h,000h,000h,000h,000h,000h,000h,000h,000h,000h,000h,000h,000h
0025+  2988 00000000000000000000
0026+  2992 000000000000.db 000h,000h,000h,000h,000h,000h,000h,000h,000h,000h,000h,000h,000h,000h,000h,000h
0026+  2998 00000000000000000000
0027+  29A2 000000000000.db 000h,000h,000h,000h,000h,000h,000h,000h,000h,000h,000h,000h,000h,000h,000h,000h
0027+  29A8 00000000000000000000
0028+  29B2 000000000000.db 000h,000h,000h,000h,000h,000h,000h,000h,000h,000h,000h,000h,000h,000h,000h,000h
0028+  29B8 00000000000000000000
0029+  29C2 000000000000.db 000h,000h,000h,000h,000h,000h,000h,000h,000h,000h,000h,000h,000h,000h,000h,000h
0029+  29C8 00000000000000000000
0030+  29D2 000000000000.db 000h,000h,000h,000h,000h,000h,000h,000h,000h,000h,000h,000h,000h,000h,000h,000h
0030+  29D8 00000000000000000000
0031+  29E2 000000000000.db 000h,000h,000h,000h,000h,000h,000h,000h,000h,000h,000h,000h,000h,000h,000h,000h
0031+  29E8 00000000000000000000
0032+  29F2 000000000000.db 000h,000h,000h,000h,000h,000h,000h,000h,000h,000h,000h,000h,000h,000h,000h,000h
0032+  29F8 00000000000000000000
0033+  2A02 000000000000.db 000h,000h,000h,000h,000h,000h,000h,000h,000h,000h,000h,000h,000h,000h,000h,000h
0033+  2A08 00000000000000000000
0034+  2A12 000000000000.db 000h,000h,000h,000h,000h,000h,000h,000h,000h,000h,000h,000h,000h,000h,000h,000h
0034+  2A18 00000000000000000000
0035+  2A22 000000000000.db 000h,000h,000h,000h,000h,000h,000h,000h,000h,000h,000h,000h,000h,000h,000h,000h
0035+  2A28 00000000000000000000
0036+  2A32 000000000000.db 000h,000h,000h,000h,000h,000h,000h,000h,000h,000h,000h,000h,000h,000h,000h,000h
0036+  2A38 00000000000000000000
0037+  2A42 000000000000.db 000h,000h,000h,000h,000h,000h,000h,000h,000h,000h,000h,000h,000h,000h,000h,000h
0037+  2A48 00000000000000000000
0038+  2A52 000000000000.db 000h,000h,000h,000h,000h,000h,000h,000h,000h,000h,000h,000h,000h,000h,000h,000h
0038+  2A58 00000000000000000000
0039+  2A62 000000000000.db 000h,000h,000h,000h,000h,000h,000h,000h,000h,000h,000h,000h,000h,000h,000h,000h
0039+  2A68 00000000000000000000
0040+  2A72 000000000000.db 000h,000h,000h,000h,000h,000h,000h,000h,000h,000h,000h,000h,000h,000h,000h,000h
0040+  2A78 00000000000000000000
0041+  2A82 000000000000.db 000h,000h,000h,000h,000h,000h,000h,000h,000h,000h,000h,000h,000h,000h,000h,000h
0041+  2A88 00000000000000000000
0042+  2A92 C800CE0ECE20.db 0C8h,000h,0CEh,00Eh,0CEh,020h,0CEh,037h,0CAh,080h,060h,005h,0CEh,03Eh,0CEh,003h
0042+  2A98 CE37CA806005CE3ECE03
0043+  2AA2 CE07CE08D001.db 0CEh,007h,0CEh,008h,0D0h,001h,000h,000h,055h,088h,0D0h,000h,006h,000h,0CBh,0FFh
0043+  2AA8 00005588D0000600CBFF
0044+  2AB2 60A0CBFF60A0.db 060h,0A0h,0CBh,0FFh,060h,0A0h,0D0h,001h,070h,002h,060h,075h,0CAh,07Fh,060h,06Dh
0044+  2AB8 D00170026075CA7F606D
0045+  2AC2 D0018000606E.db 0D0h,001h,080h,000h,060h,06Eh,0D0h,001h,075h,030h,060h,06Fh,0D0h,001h,019h,039h
0045+  2AC8 D0017530606FD0011939
0046+  2AD2 6070CA006068.db 060h,070h,0CAh,000h,060h,068h,0D7h,000h,006h,080h,0D0h,001h,006h,0C0h,060h,06Ah
0046+  2AD8 D7000680D00106C0606A
0047+  2AE2 C02C7069D600.db 0C0h,02Ch,070h,069h,0D6h,000h,006h,000h,0CAh,035h,060h,004h,020h,064h,0F6h,080h
0047+  2AE8 0600CA3560042064F680
0048+  2AF2 FB2ECA006064.db 0FBh,02Eh,0CAh,000h,060h,064h,0C0h,004h,0D5h,000h,006h,000h,031h,06Ah,0C2h,00Ah
0048+  2AF8 C004D5000600316AC20A
0049+  2B02 C4035589C307.db 0C4h,003h,055h,089h,0C3h,007h,020h,080h,0CEh,035h,060h,0E0h,020h,060h,0CEh,034h
0049+  2B08 2080CE3560E02060CE34
0050+  2B12 60602080CE35.db 060h,060h,020h,080h,0CEh,035h,060h,0EBh,020h,060h,0CEh,034h,060h,060h,0FBh,099h
0050+  2B18 60EB2060CE346060FB99
0051+  2B22 FB3B558D60A9.db 0FBh,03Bh,055h,08Dh,060h,0A9h,07Fh,040h,055h,08Ah,0FBh,099h,0FBh,03Ah,0C2h,00Ah
0051+  2B28 7F40558AFB99FB3AC20A
0052+  2B32 7E01558CFB99.db 07Eh,001h,055h,08Ch,0FBh,099h,0FBh,03Ah,0CEh,01Fh,0CAh,001h,010h,068h,060h,068h
0052+  2B38 FB3ACE1FCA0110686068
0053+  2B42 D00006C0F680.db 0D0h,000h,006h,0C0h,0F6h,080h,0FBh,05Eh,0D0h,000h,006h,080h,070h,06Ah,0CEh,001h
0053+  2B48 FB5ED0000680706ACE01
0054+  2B52 D70006809F68.db 0D7h,000h,006h,080h,09Fh,068h,0F8h,080h,0FBh,067h,0D7h,000h,006h,0C0h,0CEh,000h
0054+  2B58 F880FB67D70006C0CE00
0055+  2B62 316A326A558A.db 031h,06Ah,032h,06Ah,055h,08Ah,07Fh,002h,020h,073h,060h,0A0h,020h,074h,060h,090h
0055+  2B68 7F02207360A020746090
0056+  2B72 D30007C0D400.db 0D3h,000h,007h,0C0h,0D4h,000h,007h,040h,0C5h,01Fh,055h,089h,0F7h,080h,0FBh,078h
0056+  2B78 0740C51F5589F780FB78
0057+  2B82 2F8A3CA9386E.db 02Fh,08Ah,03Ch,0A9h,038h,06Eh,03Dh,071h,038h,06Fh,03Dh,0ACh,068h,071h,038h,070h
0057+  2B88 3D71386F3DAC68713870
0058+  2B92 CE1548754475.db 0CEh,015h,048h,075h,044h,075h,044h,075h,048h,075h,06Bh,0ABh,0CEh,01Bh,06Bh,0A9h
0058+  2B98 447548756BABCE1B6BA9
0059+  2BA2 2F8A3CA9386E.db 02Fh,08Ah,03Ch,0A9h,038h,06Eh,03Dh,072h,038h,06Fh,03Dh,0ACh,068h,072h,038h,070h
0059+  2BA8 3D72386F3DAC68723870
0060+  2BB2 CE1548754475.db 0CEh,015h,048h,075h,044h,075h,044h,075h,048h,075h,06Bh,0ABh,0CEh,01Bh,06Bh,0ADh
0060+  2BB8 447548756BABCE1B6BAD
0061+  2BC2 FB99FB787F02.db 0FBh,099h,0FBh,078h,07Fh,002h,020h,0A0h,060h,073h,020h,080h,060h,074h,0D0h,001h
0061+  2BC8 20A0607320806074D001
0062+  2BD2 0740606AF780.db 007h,040h,060h,06Ah,0F7h,080h,0FBh,0A8h,0D0h,001h,044h,000h,060h,076h,060h,077h
0062+  2BD8 FBA8D001440060766077
0063+  2BE2 C002D10007C0.db 0C0h,002h,0D1h,000h,007h,0C0h,0D0h,001h,001h,0FFh,0CBh,01Fh,04Dh,0E0h,060h,065h
0063+  2BE8 D00101FFCB1F4DE06065
0064+  2BF2 4065C1097F01.db 040h,065h,0C1h,009h,07Fh,001h,0CEh,034h,05Fh,080h,0FBh,0B2h,071h,065h,0C0h,002h
0064+  2BF8 CE345F80FBB27165C002
0065+  2C02 D10007C1D001.db 0D1h,000h,007h,0C1h,0D0h,001h,001h,0FFh,0CBh,01Fh,04Dh,0E0h,060h,066h,040h,066h
0065+  2C08 01FFCB1F4DE060664066
0066+  2C12 C1095589DF05.db 0C1h,009h,055h,089h,0DFh,005h,003h,0FFh,07Fh,001h,0CEh,034h,05Fh,080h,0FBh,0C4h
0066+  2C18 03FF7F01CE345F80FBC4
0067+  2C22 71662B65D005.db 071h,066h,02Bh,065h,0D0h,005h,004h,000h,010h,076h,05Fh,080h,0FBh,0D4h,02Bh,065h
0067+  2C28 040010765F80FBD42B65
0068+  2C32 D0050400FF80.db 0D0h,005h,004h,000h,0FFh,080h,0FBh,0D9h,020h,076h,0CDh,00Fh,05Eh,080h,0FBh,0D9h
0068+  2C38 FBD92076CD0F5E80FBD9
0069+  2C42 CA0060762B66.db 0CAh,000h,060h,076h,02Bh,066h,0D0h,005h,004h,000h,010h,077h,05Fh,080h,0FBh,0E5h
0069+  2C48 D005040010775F80FBE5
0070+  2C52 2B66D0050400.db 02Bh,066h,0D0h,005h,004h,000h,0FFh,080h,0FBh,0EAh,020h,077h,0CDh,00Fh,05Eh,080h
0070+  2C58 FF80FBEA2077CD0F5E80
0071+  2C62 FBEACA006077.db 0FBh,0EAh,0CAh,000h,060h,077h,025h,076h,068h,078h,020h,078h,0D0h,002h,0FCh,0AEh
0071+  2C68 257668782078D002FCAE
0072+  2C72 587925776878.db 058h,079h,025h,077h,068h,078h,020h,078h,0D0h,002h,0FCh,0B9h,058h,07Ah,0D0h,000h
0072+  2C78 2078D002FCB9587AD000
0073+  2C82 FFFF55882079.db 0FFh,0FFh,055h,088h,020h,079h,04Dh,07Ah,060h,080h,0DEh,001h,000h,001h,030h,065h
0073+  2C88 4D7A6080DE0100013065
0074+  2C92 55887F01FB90.db 055h,088h,07Fh,001h,0FBh,090h,0FCh,006h,0FFh,080h,0FCh,00Dh,0FBh,090h,0FCh,00Bh
0074+  2C98 FC06FF80FC0DFB90FC0B
0075+  2CA2 FF80FC0DCE19.db 0FFh,080h,0FCh,00Dh,0CEh,019h,0FBh,090h,0FCh,00Ah,060h,060h,03Ch,060h,020h,065h
0075+  2CA8 FB90FC0A60603C602065
0076+  2CB2 D002FCA65865.db 0D0h,002h,0FCh,0A6h,058h,065h,0C0h,006h,055h,089h,028h,065h,0D0h,004h,004h,000h
0076+  2CB8 C00655892865D0040400
0077+  2CC2 6067C208316A.db 060h,067h,0C2h,008h,031h,06Ah,0FEh,080h,0FCh,074h,029h,065h,0D0h,004h,004h,000h
0077+  2CC8 FE80FC742965D0040400
0078+  2CD2 6067C208316A.db 060h,067h,0C2h,008h,031h,06Ah,07Eh,002h,0FEh,080h,0FCh,074h,02Ah,065h,0D0h,004h
0078+  2CD8 7E02FE80FC742A65D004
0079+  2CE2 04006067C208.db 004h,000h,060h,067h,0C2h,008h,031h,06Ah,07Eh,004h,0FEh,080h,0FCh,074h,0CAh,000h
0079+  2CE8 316A7E04FE80FC74CA00
0080+  2CF2 6067C204C002.db 060h,067h,0C2h,004h,0C0h,002h,031h,06Ah,07Eh,036h,0FEh,080h,0FCh,074h,0DEh,001h
0080+  2CF8 316A7E36FE80FC74DE01
0081+  2D02 000130665588.db 000h,001h,030h,066h,055h,088h,07Fh,001h,0FBh,090h,0FCh,040h,0FFh,080h,0FCh,047h
0081+  2D08 7F01FB90FC40FF80FC47
0082+  2D12 FB90FC45FF80.db 0FBh,090h,0FCh,045h,0FFh,080h,0FCh,047h,0CEh,019h,0FBh,090h,0FCh,044h,060h,060h
0082+  2D18 FC47CE19FB90FC446060
0083+  2D22 3C602066D002.db 03Ch,060h,020h,066h,0D0h,002h,0FCh,0A6h,058h,066h,0C0h,006h,055h,089h,028h,066h
0083+  2D28 FCA65866C00655892866
0084+  2D32 D00404006067.db 0D0h,004h,004h,000h,060h,067h,0C2h,008h,031h,06Ah,07Eh,001h,0FEh,080h,0FCh,074h
0084+  2D38 C208316A7E01FE80FC74
0085+  2D42 2966D0040400.db 029h,066h,0D0h,004h,004h,000h,060h,067h,0C2h,008h,031h,06Ah,07Eh,003h,0FEh,080h
0085+  2D48 6067C208316A7E03FE80
0086+  2D52 FC742A66D004.db 0FCh,074h,02Ah,066h,0D0h,004h,004h,000h,060h,067h,0C2h,008h,031h,06Ah,07Eh,005h
0086+  2D58 04006067C208316A7E05
0087+  2D62 FE80FC74CA00.db 0FEh,080h,0FCh,074h,0CAh,000h,060h,067h,0C2h,004h,0C0h,002h,031h,06Ah,07Eh,037h
0087+  2D68 6067C204C002316A7E37
0088+  2D72 FE80FC74FF80.db 0FEh,080h,0FCh,074h,0FFh,080h,0FBh,02Eh,0CFh,080h,07Dh,080h,02Ch,080h,068h,080h
0088+  2D78 FB2ECF807D802C806880
0089+  2D82 20804E6DD002.db 020h,080h,04Eh,06Dh,0D0h,002h,0FCh,0C4h,058h,080h,040h,067h,048h,080h,0CEh,015h
0089+  2D88 FCC4588040674880CE15
0090+  2D92 68EAFB99FC74.db 068h,0EAh,0FBh,099h,0FCh,074h,0CEh,026h,079h,061h,077h,06Ch,0C7h,02Bh,077h,069h
0090+  2D98 CE267961776CC72B7769
0091+  2DA2 376C5161CE00.db 037h,06Ch,051h,061h,0CEh,000h,0CEh,026h,079h,061h,077h,06Ch,055h,08Eh,037h,0AFh
0091+  2DA8 CE267961776C558E37AF
0092+  2DB2 77013769FB90.db 077h,001h,037h,069h,0FBh,090h,0FCh,098h,0C7h,02Ch,0D6h,000h,006h,000h,077h,064h
0092+  2DB8 FC98C72CD60006007764
0093+  2DC2 7769376C5161.db 077h,069h,037h,06Ch,051h,061h,0CEh,000h,0CEh,026h,079h,061h,076h,06Bh,055h,08Fh
0093+  2DC8 CE00CE267961766B558F
0094+  2DD2 360076A0366B.db 036h,000h,076h,0A0h,036h,06Bh,051h,061h,0CEh,000h,0CEh,026h,000h,000h,000h,001h
0094+  2DD8 5161CE00CE2600000001
0095+  2DE2 000200040003.db 000h,002h,000h,004h,000h,003h,000h,005h,000h,006h,000h,007h,000h,000h,000h,000h
0095+  2DE8 00050006000700000000
0096+  2DF2 000000000000.db 000h,000h,000h,000h,000h,000h,000h,080h,000h,0A0h,000h,0A8h,000h,0AAh,000h,0AAh
0096+  2DF8 008000A000A800AA00AA
0097+  2E02 00AA00000000.db 000h,0AAh,000h,000h,000h,000h,000h,000h,000h,000h,000h,000h,000h,040h,000h,050h
0097+  2E08 00000000000000400050
0098+  2E12 005400550055.db 000h,054h,000h,055h,000h,055h,000h,055h,000h,000h,004h,000h,004h,000h,000h,000h
0098+  2E18 00550000040004000000
0099+  2E22 040000000000.db 004h,000h,000h,000h,000h,000h,004h,000h,004h,000h,000h,000h,000h,000h,004h,000h
0099+  2E28 04000400000000000400
0100+  2E32 000004000400.db 000h,000h,004h,000h,004h,000h,000h,000h,004h,000h,000h,000h,000h,000h,004h,000h
0100+  2E38 00000400000000000400
0101+  2E42 000004000400.db 000h,000h,004h,000h,004h,000h,000h,000h,000h,000h,004h,000h,004h,000h,000h,000h
0101+  2E48 00000000040004000000
0102+  2E52 040000000000.db 004h,000h,000h,000h,000h,000h,004h,000h,004h,000h,000h,000h,000h,000h,004h,000h
0102+  2E58 04000400000000000400
0103+  2E62 000004000400.db 000h,000h,004h,000h,004h,000h,000h,000h,000h,000h,004h,000h,004h,000h,000h,000h
0103+  2E68 00000000040004000000
0104+  2E72 040000000000.db 004h,000h,000h,000h,000h,000h,004h,000h,000h,000h,004h,000h,004h,000h,000h,000h
0104+  2E78 04000000040004000000
0105+  2E82 040000000000.db 004h,000h,000h,000h,000h,000h,004h,000h,004h,000h,000h,000h,000h,000h,004h,000h
0105+  2E88 04000400000000000400
0106+  2E92 000004000400.db 000h,000h,004h,000h,004h,000h,000h,000h,004h,000h,000h,000h,000h,000h,004h,000h
0106+  2E98 00000400000000000400
0107+  2EA2 000004000400.db 000h,000h,004h,000h,004h,000h,000h,000h,000h,000h,004h,000h,004h,000h,000h,000h
0107+  2EA8 00000000040004000000
0108+  2EB2 040000000000.db 004h,000h,000h,000h,000h,000h,004h,000h,000h,000h,004h,000h,004h,000h,000h,000h
0108+  2EB8 04000000040004000000
0109+  2EC2 040000000000.db 004h,000h,000h,000h,000h,000h,004h,000h,004h,000h,000h,000h,000h,000h,004h,000h
0109+  2EC8 04000400000000000400
0110+  2ED2 000004000400.db 000h,000h,004h,000h,004h,000h,000h,000h,000h,000h,004h,000h,004h,000h,000h,000h
0110+  2ED8 00000000040004000000
0111+  2EE2 040000000000.db 004h,000h,000h,000h,000h,000h,004h,000h,004h,000h,000h,000h,000h,000h,004h,000h
0111+  2EE8 04000400000000000400
0112+  2EF2 000004000400.db 000h,000h,004h,000h,004h,000h,000h,000h,004h,000h,000h,000h,000h,000h,004h,000h
0112+  2EF8 00000400000000000400
0113+  2F02 000004000400.db 000h,000h,004h,000h,004h,000h,000h,000h,000h,000h,004h,000h,004h,000h,000h,000h
0113+  2F08 00000000040004000000
0114+  2F12 040000000000.db 004h,000h,000h,000h,000h,000h,004h,000h,000h,000h
0114+  2F18 04000000
0115+  2F1C             
0116+  2F1C 00          DSP_12DBEND:		.db	0
0117+  2F1D             
0118+  2F1D             ;------------------- end of file -----------------------
0119+  2F1D             
0800   2F1D             #include "dsp_nopr.asm"
0001+  2F1D             ;--------------------------------------------------
0002+  2F1D             ;  File: DSP_NOPR.asm
0003+  2F1D             ;  Date: Sun Oct 11 20:44:50 1998
0004+  2F1D             ;
0005+  2F1D             ;  Produced by bin2asm.exe
0006+  2F1D             ;--------------------------------------------------
0007+  2F1D             
0008+  2F1D             DSP_NOPR:
0009+  2F1D             
0010+  2F1D FF80FB00FF80.db 0FFh,080h,0FBh,000h,0FFh,080h,0FCh,054h,0FFh,080h,0FBh,000h,0FFh,080h,0FBh,000h
0010+  2F23 FC54FF80FB00FF80FB00
0011+  2F2D FF80FB00FF80.db 0FFh,080h,0FBh,000h,0FFh,080h,0FCh,06Dh,0FFh,080h,0FCh,05Ch,000h,000h,000h,000h
0011+  2F33 FC6DFF80FC5C00000000
0012+  2F3D 000000000000.db 000h,000h,000h,000h,000h,000h,000h,000h,000h,000h,000h,000h,000h,000h,000h,000h
0012+  2F43 00000000000000000000
0013+  2F4D 000000000000.db 000h,000h,000h,000h,000h,000h,000h,000h,000h,000h,000h,000h,000h,000h,000h,000h
0013+  2F53 00000000000000000000
0014+  2F5D 000000000000.db 000h,000h,000h,000h,000h,000h,000h,000h,000h,000h,000h,000h,000h,000h,000h,000h
0014+  2F63 00000000000000000000
0015+  2F6D 000000000000.db 000h,000h,000h,000h,000h,000h,000h,000h,000h,000h,000h,000h,000h,000h,000h,000h
0015+  2F73 00000000000000000000
0016+  2F7D 000000000000.db 000h,000h,000h,000h,000h,000h,000h,000h,000h,000h,000h,000h,000h,000h,000h,000h
0016+  2F83 00000000000000000000
0017+  2F8D 000000000000.db 000h,000h,000h,000h,000h,000h,000h,000h,000h,000h,000h,000h,000h,000h,000h,000h
0017+  2F93 00000000000000000000
0018+  2F9D 000000000000.db 000h,000h,000h,000h,000h,000h,000h,000h,000h,000h,000h,000h,000h,000h,000h,000h
0018+  2FA3 00000000000000000000
0019+  2FAD 000000000000.db 000h,000h,000h,000h,000h,000h,000h,000h,000h,000h,000h,000h,000h,000h,000h,000h
0019+  2FB3 00000000000000000000
0020+  2FBD 000000000000.db 000h,000h,000h,000h,000h,000h,000h,000h,000h,000h,000h,000h,000h,000h,000h,000h
0020+  2FC3 00000000000000000000
0021+  2FCD 000000000000.db 000h,000h,000h,000h,000h,000h,000h,000h,000h,000h,000h,000h,000h,000h,000h,000h
0021+  2FD3 00000000000000000000
0022+  2FDD 000000000000.db 000h,000h,000h,000h,000h,000h,000h,000h,000h,000h,000h,000h,000h,000h,000h,000h
0022+  2FE3 00000000000000000000
0023+  2FED 000000000000.db 000h,000h,000h,000h,000h,000h,000h,000h,000h,000h,000h,000h,000h,000h,000h,000h
0023+  2FF3 00000000000000000000
0024+  2FFD 000000000000.db 000h,000h,000h,000h,000h,000h,000h,000h,000h,000h,000h,000h,000h,000h,000h,000h
0024+  3003 00000000000000000000
0025+  300D 000000000000.db 000h,000h,000h,000h,000h,000h,000h,000h,000h,000h,000h,000h,000h,000h,000h,000h
0025+  3013 00000000000000000000
0026+  301D 000000000000.db 000h,000h,000h,000h,000h,000h,000h,000h,000h,000h,000h,000h,000h,000h,000h,000h
0026+  3023 00000000000000000000
0027+  302D 000000000000.db 000h,000h,000h,000h,000h,000h,000h,000h,000h,000h,000h,000h,000h,000h,000h,000h
0027+  3033 00000000000000000000
0028+  303D 000000000000.db 000h,000h,000h,000h,000h,000h,000h,000h,000h,000h,000h,000h,000h,000h,000h,000h
0028+  3043 00000000000000000000
0029+  304D 000000000000.db 000h,000h,000h,000h,000h,000h,000h,000h,000h,000h,000h,000h,000h,000h,000h,000h
0029+  3053 00000000000000000000
0030+  305D 000000000000.db 000h,000h,000h,000h,000h,000h,000h,000h,000h,000h,000h,000h,000h,000h,000h,000h
0030+  3063 00000000000000000000
0031+  306D 000000000000.db 000h,000h,000h,000h,000h,000h,000h,000h,000h,000h,000h,000h,000h,000h,000h,000h
0031+  3073 00000000000000000000
0032+  307D 000000000000.db 000h,000h,000h,000h,000h,000h,000h,000h,000h,000h,000h,000h,000h,000h,000h,000h
0032+  3083 00000000000000000000
0033+  308D 000000000000.db 000h,000h,000h,000h,000h,000h,000h,000h,000h,000h,000h,000h,000h,000h,000h,000h
0033+  3093 00000000000000000000
0034+  309D 000000000000.db 000h,000h,000h,000h,000h,000h,000h,000h,000h,000h,000h,000h,000h,000h,000h,000h
0034+  30A3 00000000000000000000
0035+  30AD 000000000000.db 000h,000h,000h,000h,000h,000h,000h,000h,000h,000h,000h,000h,000h,000h,000h,000h
0035+  30B3 00000000000000000000
0036+  30BD 000000000000.db 000h,000h,000h,000h,000h,000h,000h,000h,000h,000h,000h,000h,000h,000h,000h,000h
0036+  30C3 00000000000000000000
0037+  30CD 000000000000.db 000h,000h,000h,000h,000h,000h,000h,000h,000h,000h,000h,000h,000h,000h,000h,000h
0037+  30D3 00000000000000000000
0038+  30DD 000000000000.db 000h,000h,000h,000h,000h,000h,000h,000h,000h,000h,000h,000h,000h,000h,000h,000h
0038+  30E3 00000000000000000000
0039+  30ED 000000000000.db 000h,000h,000h,000h,000h,000h,000h,000h,000h,000h,000h,000h,000h,000h,000h,000h
0039+  30F3 00000000000000000000
0040+  30FD 000000000000.db 000h,000h,000h,000h,000h,000h,000h,000h,000h,000h,000h,000h,000h,000h,000h,000h
0040+  3103 00000000000000000000
0041+  310D 000000000000.db 000h,000h,000h,000h,000h,000h,000h,000h,000h,000h,000h,000h,000h,000h,000h,000h
0041+  3113 00000000000000000000
0042+  311D C800CE0ECE20.db 0C8h,000h,0CEh,00Eh,0CEh,020h,0CEh,037h,0CAh,080h,060h,005h,0CEh,03Eh,0CEh,003h
0042+  3123 CE37CA806005CE3ECE03
0043+  312D CE07CE08D001.db 0CEh,007h,0CEh,008h,0D0h,001h,000h,000h,055h,088h,0D0h,000h,006h,000h,0CBh,0FFh
0043+  3133 00005588D0000600CBFF
0044+  313D 60A0CBFF60A0.db 060h,0A0h,0CBh,0FFh,060h,0A0h,060h,075h,0CAh,07Fh,060h,06Dh,0D0h,001h,080h,000h
0044+  3143 6075CA7F606DD0018000
0045+  314D 606ED0017530.db 060h,06Eh,0D0h,001h,075h,030h,060h,06Fh,0D0h,001h,019h,039h,060h,070h,0CAh,000h
0045+  3153 606FD00119396070CA00
0046+  315D 6068D7000680.db 060h,068h,0D7h,000h,006h,080h,0D0h,001h,006h,0C0h,060h,06Ah,0C0h,02Ch,070h,069h
0046+  3163 D00106C0606AC02C7069
0047+  316D D6000600CA35.db 0D6h,000h,006h,000h,0CAh,035h,060h,004h,020h,064h,0F6h,080h,0FBh,02Ch,0CAh,000h
0047+  3173 60042064F680FB2CCA00
0048+  317D 6064C004D500.db 060h,064h,0C0h,004h,0D5h,000h,006h,000h,031h,06Ah,0C2h,00Ah,0C4h,003h,055h,089h
0048+  3183 0600316AC20AC4035589
0049+  318D C3072080CE35.db 0C3h,007h,020h,080h,0CEh,035h,060h,0E0h,020h,060h,0CEh,034h,060h,060h,020h,080h
0049+  3193 60E02060CE3460602080
0050+  319D CE3560EB2060.db 0CEh,035h,060h,0EBh,020h,060h,0CEh,034h,060h,060h,0FBh,099h,0FBh,039h,055h,08Dh
0050+  31A3 CE346060FB99FB39558D
0051+  31AD 60A97F40558A.db 060h,0A9h,07Fh,040h,055h,08Ah,0FBh,099h,0FBh,038h,0C2h,00Ah,07Eh,001h,055h,08Ch
0051+  31B3 FB99FB38C20A7E01558C
0052+  31BD FB99FB38CE1F.db 0FBh,099h,0FBh,038h,0CEh,01Fh,0CAh,001h,010h,068h,060h,068h,0D0h,000h,006h,0C0h
0052+  31C3 CA0110686068D00006C0
0053+  31CD F680FB5CD000.db 0F6h,080h,0FBh,05Ch,0D0h,000h,006h,080h,070h,06Ah,0CEh,001h,0D7h,000h,006h,080h
0053+  31D3 0680706ACE01D7000680
0054+  31DD 9F68F880FB65.db 09Fh,068h,0F8h,080h,0FBh,065h,0D7h,000h,006h,0C0h,0CEh,000h,031h,06Ah,0D3h,000h
0054+  31E3 D70006C0CE00316AD300
0055+  31ED 07C0C53F5589.db 007h,0C0h,0C5h,03Fh,055h,089h,0F7h,080h,0FBh,06Dh,020h,0ABh,0CEh,01Bh,060h,0ADh
0055+  31F3 F780FB6D20ABCE1B60AD
0056+  31FD FB99FB6DF780.db 0FBh,099h,0FBh,06Dh,0F7h,080h,0FBh,078h,0D0h,001h,044h,000h,060h,076h,060h,077h
0056+  3203 FB78D001440060766077
0057+  320D C002D10007C0.db 0C0h,002h,0D1h,000h,007h,0C0h,0D0h,001h,001h,0FFh,0CBh,01Fh,04Dh,0E0h,060h,065h
0057+  3213 D00101FFCB1F4DE06065
0058+  321D 4065C1097F01.db 040h,065h,0C1h,009h,07Fh,001h,0CEh,034h,05Fh,080h,0FBh,082h,071h,065h,0C0h,002h
0058+  3223 CE345F80FB827165C002
0059+  322D D10007C1D001.db 0D1h,000h,007h,0C1h,0D0h,001h,001h,0FFh,0CBh,01Fh,04Dh,0E0h,060h,066h,040h,066h
0059+  3233 01FFCB1F4DE060664066
0060+  323D C1095589DF05.db 0C1h,009h,055h,089h,0DFh,005h,003h,0FFh,07Fh,001h,0CEh,034h,05Fh,080h,0FBh,094h
0060+  3243 03FF7F01CE345F80FB94
0061+  324D 71662B65D005.db 071h,066h,02Bh,065h,0D0h,005h,004h,000h,010h,076h,05Fh,080h,0FBh,0A4h,02Bh,065h
0061+  3253 040010765F80FBA42B65
0062+  325D D0050400FF80.db 0D0h,005h,004h,000h,0FFh,080h,0FBh,0A9h,020h,076h,0CDh,00Fh,05Eh,080h,0FBh,0A9h
0062+  3263 FBA92076CD0F5E80FBA9
0063+  326D CA0060762B66.db 0CAh,000h,060h,076h,02Bh,066h,0D0h,005h,004h,000h,010h,077h,05Fh,080h,0FBh,0B5h
0063+  3273 D005040010775F80FBB5
0064+  327D 2B66D0050400.db 02Bh,066h,0D0h,005h,004h,000h,0FFh,080h,0FBh,0BAh,020h,077h,0CDh,00Fh,05Eh,080h
0064+  3283 FF80FBBA2077CD0F5E80
0065+  328D FBBACA006077.db 0FBh,0BAh,0CAh,000h,060h,077h,025h,076h,068h,078h,020h,078h,0D0h,002h,0FCh,07Eh
0065+  3293 257668782078D002FC7E
0066+  329D 587925776878.db 058h,079h,025h,077h,068h,078h,020h,078h,0D0h,002h,0FCh,089h,058h,07Ah,0D0h,000h
0066+  32A3 2078D002FC89587AD000
0067+  32AD FFFF55882079.db 0FFh,0FFh,055h,088h,020h,079h,04Dh,07Ah,060h,080h,0DEh,001h,000h,001h,030h,065h
0067+  32B3 4D7A6080DE0100013065
0068+  32BD 55887F01FB90.db 055h,088h,07Fh,001h,0FBh,090h,0FBh,0D6h,0FFh,080h,0FBh,0DDh,0FBh,090h,0FBh,0DBh
0068+  32C3 FBD6FF80FBDDFB90FBDB
0069+  32CD FF80FBDDCE19.db 0FFh,080h,0FBh,0DDh,0CEh,019h,0FBh,090h,0FBh,0DAh,060h,060h,03Ch,060h,020h,065h
0069+  32D3 FB90FBDA60603C602065
0070+  32DD D002FC765865.db 0D0h,002h,0FCh,076h,058h,065h,0C0h,006h,055h,089h,028h,065h,0D0h,004h,004h,000h
0070+  32E3 C00655892865D0040400
0071+  32ED 6067C208316A.db 060h,067h,0C2h,008h,031h,06Ah,0FEh,080h,0FCh,044h,029h,065h,0D0h,004h,004h,000h
0071+  32F3 FE80FC442965D0040400
0072+  32FD 6067C208316A.db 060h,067h,0C2h,008h,031h,06Ah,07Eh,002h,0FEh,080h,0FCh,044h,02Ah,065h,0D0h,004h
0072+  3303 7E02FE80FC442A65D004
0073+  330D 04006067C208.db 004h,000h,060h,067h,0C2h,008h,031h,06Ah,07Eh,004h,0FEh,080h,0FCh,044h,0CAh,000h
0073+  3313 316A7E04FE80FC44CA00
0074+  331D 6067C204C002.db 060h,067h,0C2h,004h,0C0h,002h,031h,06Ah,07Eh,036h,0FEh,080h,0FCh,044h,0DEh,001h
0074+  3323 316A7E36FE80FC44DE01
0075+  332D 000130665588.db 000h,001h,030h,066h,055h,088h,07Fh,001h,0FBh,090h,0FCh,010h,0FFh,080h,0FCh,017h
0075+  3333 7F01FB90FC10FF80FC17
0076+  333D FB90FC15FF80.db 0FBh,090h,0FCh,015h,0FFh,080h,0FCh,017h,0CEh,019h,0FBh,090h,0FCh,014h,060h,060h
0076+  3343 FC17CE19FB90FC146060
0077+  334D 3C602066D002.db 03Ch,060h,020h,066h,0D0h,002h,0FCh,076h,058h,066h,0C0h,006h,055h,089h,028h,066h
0077+  3353 FC765866C00655892866
0078+  335D D00404006067.db 0D0h,004h,004h,000h,060h,067h,0C2h,008h,031h,06Ah,07Eh,001h,0FEh,080h,0FCh,044h
0078+  3363 C208316A7E01FE80FC44
0079+  336D 2966D0040400.db 029h,066h,0D0h,004h,004h,000h,060h,067h,0C2h,008h,031h,06Ah,07Eh,003h,0FEh,080h
0079+  3373 6067C208316A7E03FE80
0080+  337D FC442A66D004.db 0FCh,044h,02Ah,066h,0D0h,004h,004h,000h,060h,067h,0C2h,008h,031h,06Ah,07Eh,005h
0080+  3383 04006067C208316A7E05
0081+  338D FE80FC44CA00.db 0FEh,080h,0FCh,044h,0CAh,000h,060h,067h,0C2h,004h,0C0h,002h,031h,06Ah,07Eh,037h
0081+  3393 6067C204C002316A7E37
0082+  339D FE80FC44FF80.db 0FEh,080h,0FCh,044h,0FFh,080h,0FBh,02Ch,0CFh,080h,07Dh,080h,02Ch,080h,068h,080h
0082+  33A3 FB2CCF807D802C806880
0083+  33AD 20804E6DD002.db 020h,080h,04Eh,06Dh,0D0h,002h,0FCh,094h,058h,080h,040h,067h,048h,080h,0CEh,015h
0083+  33B3 FC94588040674880CE15
0084+  33BD 68EAFB99FC44.db 068h,0EAh,0FBh,099h,0FCh,044h,0CEh,026h,079h,061h,077h,06Ch,0C7h,02Bh,077h,069h
0084+  33C3 CE267961776CC72B7769
0085+  33CD 376C5161CE00.db 037h,06Ch,051h,061h,0CEh,000h,0CEh,026h,079h,061h,077h,06Ch,055h,08Eh,037h,0AFh
0085+  33D3 CE267961776C558E37AF
0086+  33DD 77013769FB90.db 077h,001h,037h,069h,0FBh,090h,0FCh,068h,0C7h,02Ch,0D6h,000h,006h,000h,077h,064h
0086+  33E3 FC68C72CD60006007764
0087+  33ED 7769376C5161.db 077h,069h,037h,06Ch,051h,061h,0CEh,000h,0CEh,026h,079h,061h,076h,06Bh,055h,08Fh
0087+  33F3 CE00CE267961766B558F
0088+  33FD 360076A0366B.db 036h,000h,076h,0A0h,036h,06Bh,051h,061h,0CEh,000h,0CEh,026h,000h,000h,000h,001h
0088+  3403 5161CE00CE2600000001
0089+  340D 000200040003.db 000h,002h,000h,004h,000h,003h,000h,005h,000h,006h,000h,007h,000h,000h,000h,000h
0089+  3413 00050006000700000000
0090+  341D 000000000000.db 000h,000h,000h,000h,000h,000h,000h,080h,000h,0A0h,000h,0A8h,000h,0AAh,000h,0AAh
0090+  3423 008000A000A800AA00AA
0091+  342D 00AA00000000.db 000h,0AAh,000h,000h,000h,000h,000h,000h,000h,000h,000h,000h,000h,040h,000h,050h
0091+  3433 00000000000000400050
0092+  343D 005400550055.db 000h,054h,000h,055h,000h,055h,000h,055h,000h,000h,004h,000h,004h,000h,000h,000h
0092+  3443 00550000040004000000
0093+  344D 040000000000.db 004h,000h,000h,000h,000h,000h,004h,000h,004h,000h,000h,000h,000h,000h,004h,000h
0093+  3453 04000400000000000400
0094+  345D 000004000400.db 000h,000h,004h,000h,004h,000h,000h,000h,004h,000h,000h,000h,000h,000h,004h,000h
0094+  3463 00000400000000000400
0095+  346D 000004000400.db 000h,000h,004h,000h,004h,000h,000h,000h,000h,000h,004h,000h,004h,000h,000h,000h
0095+  3473 00000000040004000000
0096+  347D 040000000000.db 004h,000h,000h,000h,000h,000h,004h,000h,004h,000h,000h,000h,000h,000h,004h,000h
0096+  3483 04000400000000000400
0097+  348D 000004000400.db 000h,000h,004h,000h,004h,000h,000h,000h,000h,000h,004h,000h,004h,000h,000h,000h
0097+  3493 00000000040004000000
0098+  349D 040000000000.db 004h,000h,000h,000h,000h,000h,004h,000h,000h,000h,004h,000h,004h,000h,000h,000h
0098+  34A3 04000000040004000000
0099+  34AD 040000000000.db 004h,000h,000h,000h,000h,000h,004h,000h,004h,000h,000h,000h,000h,000h,004h,000h
0099+  34B3 04000400000000000400
0100+  34BD 000004000400.db 000h,000h,004h,000h,004h,000h,000h,000h,004h,000h,000h,000h,000h,000h,004h,000h
0100+  34C3 00000400000000000400
0101+  34CD 000004000400.db 000h,000h,004h,000h,004h,000h,000h,000h,000h,000h,004h,000h,004h,000h,000h,000h
0101+  34D3 00000000040004000000
0102+  34DD 040000000000.db 004h,000h,000h,000h,000h,000h,004h,000h,000h,000h,004h,000h,004h,000h,000h,000h
0102+  34E3 04000000040004000000
0103+  34ED 040000000000.db 004h,000h,000h,000h,000h,000h,004h,000h,004h,000h,000h,000h,000h,000h,004h,000h
0103+  34F3 04000400000000000400
0104+  34FD 000004000400.db 000h,000h,004h,000h,004h,000h,000h,000h,000h,000h,004h,000h,004h,000h,000h,000h
0104+  3503 00000000040004000000
0105+  350D 040000000000.db 004h,000h,000h,000h,000h,000h,004h,000h,004h,000h,000h,000h,000h,000h,004h,000h
0105+  3513 04000400000000000400
0106+  351D 000004000400.db 000h,000h,004h,000h,004h,000h,000h,000h,004h,000h,000h,000h,000h,000h,004h,000h
0106+  3523 00000400000000000400
0107+  352D 000004000400.db 000h,000h,004h,000h,004h,000h,000h,000h,000h,000h,004h,000h,004h,000h,000h,000h
0107+  3533 00000000040004000000
0108+  353D 040000000000.db 004h,000h,000h,000h,000h,000h,004h,000h,000h,000h
0108+  3543 04000000
0109+  3547             
0110+  3547 00          DSP_NOPREND:		.db	0
0111+  3548             
0112+  3548             ;------------------- end of file -----------------------
0113+  3548             
0801   3548             #include "beepboth.asm"
0001+  3548             ;--------------------------------------------------
0002+  3548             ;  File: BEEPBOTH.asm
0003+  3548             ;  Date: Sun Jan 02 16:58:35 2000
0004+  3548             ;
0005+  3548             ;  Produced by bin2asm.exe
0006+  3548             ;--------------------------------------------------
0007+  3548             
0008+  3548             BEEPBOTH:
0009+  3548             
0010+  3548 FF80FA0EFF80.db 0FFh,080h,0FAh,00Eh,0FFh,080h,0FBh,060h,0FFh,080h,0FAh,00Eh,0FFh,080h,0FAh,00Eh
0010+  354E FB60FF80FA0EFF80FA0E
0011+  3558 FF80FA0EFF80.db 0FFh,080h,0FAh,00Eh,0FFh,080h,0FBh,068h,0FFh,080h,0FBh,068h,0C8h,000h,0CEh,00Eh
0011+  355E FB68FF80FB68C800CE0E
0012+  3568 CE20CE37CA80.db 0CEh,020h,0CEh,037h,0CAh,080h,060h,005h,0CEh,03Eh,0CEh,003h,0CEh,007h,0CEh,008h
0012+  356E 6005CE3ECE03CE07CE08
0013+  3578 D00100005588.db 0D0h,001h,000h,000h,055h,088h,0D0h,000h,006h,000h,0CBh,0FFh,060h,0A0h,0CBh,0FFh
0013+  357E D0000600CBFF60A0CBFF
0014+  3588 60A0D0014002.db 060h,0A0h,0D0h,001h,040h,002h,060h,075h,0CAh,07Fh,060h,06Dh,0D0h,001h,080h,000h
0014+  358E 6075CA7F606DD0018000
0015+  3598 606ED0017530.db 060h,06Eh,0D0h,001h,075h,030h,060h,06Fh,0D0h,001h,019h,039h,060h,070h,0CAh,000h
0015+  359E 606FD00119396070CA00
0016+  35A8 6068D7000680.db 060h,068h,0D7h,000h,006h,080h,0D0h,001h,006h,0C0h,060h,06Ah,0C0h,02Ch,070h,069h
0016+  35AE D00106C0606AC02C7069
0017+  35B8 D6000600CA25.db 0D6h,000h,006h,000h,0CAh,025h,060h,004h,020h,064h,0F6h,080h,0FAh,03Ch,0CAh,000h
0017+  35BE 60042064F680FA3CCA00
0018+  35C8 6064C004D500.db 060h,064h,0C0h,004h,0D5h,000h,006h,000h,031h,06Ah,0C2h,00Ah,0C4h,003h,055h,089h
0018+  35CE 0600316AC20AC4035589
0019+  35D8 C3072080CE35.db 0C3h,007h,020h,080h,0CEh,035h,060h,0E0h,020h,060h,0CEh,034h,060h,060h,020h,080h
0019+  35DE 60E02060CE3460602080
0020+  35E8 CE3560EB2060.db 0CEh,035h,060h,0EBh,020h,060h,0CEh,034h,060h,060h,0FBh,099h,0FAh,049h,055h,08Dh
0020+  35EE CE346060FB99FA49558D
0021+  35F8 60A97F40558A.db 060h,0A9h,07Fh,040h,055h,08Ah,0FBh,099h,0FAh,048h,0C2h,00Ah,07Eh,001h,055h,08Ch
0021+  35FE FB99FA48C20A7E01558C
0022+  3608 FB99FA48CE1F.db 0FBh,099h,0FAh,048h,0CEh,01Fh,0CAh,001h,010h,068h,060h,068h,0D0h,000h,006h,0C0h
0022+  360E CA0110686068D00006C0
0023+  3618 F680FA6CD000.db 0F6h,080h,0FAh,06Ch,0D0h,000h,006h,080h,070h,06Ah,031h,06Ah,055h,089h,0CBh,03Fh
0023+  361E 0680706A316A5589CB3F
0024+  3628 FCA0FC18316A.db 0FCh,0A0h,0FCh,018h,031h,06Ah,0D3h,000h,007h,0C0h,0C5h,03Fh,055h,089h,0F7h,080h
0024+  362E D30007C0C53F5589F780
0025+  3638 FA7920ABCE1B.db 0FAh,079h,020h,0ABh,0CEh,01Bh,060h,0ADh,0FBh,099h,0FAh,079h,0F7h,080h,0FAh,084h
0025+  363E 60ADFB99FA79F780FA84
0026+  3648 D00144006076.db 0D0h,001h,044h,000h,060h,076h,060h,077h,0C0h,002h,0D1h,000h,007h,0C0h,0D0h,001h
0026+  364E 6077C002D10007C0D001
0027+  3658 01FFCB1F4DE0.db 001h,0FFh,0CBh,01Fh,04Dh,0E0h,060h,065h,040h,065h,0C1h,009h,07Fh,001h,0CEh,034h
0027+  365E 60654065C1097F01CE34
0028+  3668 5F80FA8E7165.db 05Fh,080h,0FAh,08Eh,071h,065h,0C0h,002h,0D1h,000h,007h,0C1h,0D0h,001h,001h,0FFh
0028+  366E C002D10007C1D00101FF
0029+  3678 CB1F4DE06066.db 0CBh,01Fh,04Dh,0E0h,060h,066h,040h,066h,0C1h,009h,055h,089h,0DFh,005h,003h,0FFh
0029+  367E 4066C1095589DF0503FF
0030+  3688 7F01CE345F80.db 07Fh,001h,0CEh,034h,05Fh,080h,0FAh,0A0h,071h,066h,02Bh,065h,0D0h,005h,004h,000h
0030+  368E FAA071662B65D0050400
0031+  3698 10765F80FAB0.db 010h,076h,05Fh,080h,0FAh,0B0h,02Bh,065h,0D0h,005h,004h,000h,0FFh,080h,0FAh,0B5h
0031+  369E 2B65D0050400FF80FAB5
0032+  36A8 2076CD0F5E80.db 020h,076h,0CDh,00Fh,05Eh,080h,0FAh,0B5h,0CAh,000h,060h,076h,02Bh,066h,0D0h,005h
0032+  36AE FAB5CA0060762B66D005
0033+  36B8 040010775F80.db 004h,000h,010h,077h,05Fh,080h,0FAh,0C1h,02Bh,066h,0D0h,005h,004h,000h,0FFh,080h
0033+  36BE FAC12B66D0050400FF80
0034+  36C8 FAC62077CD0F.db 0FAh,0C6h,020h,077h,0CDh,00Fh,05Eh,080h,0FAh,0C6h,0CAh,000h,060h,077h,025h,076h
0034+  36CE 5E80FAC6CA0060772576
0035+  36D8 68782078D002.db 068h,078h,020h,078h,0D0h,002h,0FBh,081h,058h,079h,025h,077h,068h,078h,020h,078h
0035+  36DE FB815879257768782078
0036+  36E8 D002FB8C587A.db 0D0h,002h,0FBh,08Ch,058h,07Ah,0D0h,000h,0FFh,0FFh,055h,088h,020h,079h,04Dh,07Ah
0036+  36EE D000FFFF558820794D7A
0037+  36F8 6080DE010001.db 060h,080h,0DEh,001h,000h,001h,030h,065h,055h,088h,07Fh,001h,0FBh,090h,0FAh,0E2h
0037+  36FE 306555887F01FB90FAE2
0038+  3708 FF80FAE9FB90.db 0FFh,080h,0FAh,0E9h,0FBh,090h,0FAh,0E7h,0FFh,080h,0FAh,0E9h,0CEh,019h,0FBh,090h
0038+  370E FAE7FF80FAE9CE19FB90
0039+  3718 FAE660603C60.db 0FAh,0E6h,060h,060h,03Ch,060h,020h,065h,0D0h,002h,0FBh,079h,058h,065h,0C0h,006h
0039+  371E 2065D002FB795865C006
0040+  3728 55892865D004.db 055h,089h,028h,065h,0D0h,004h,004h,000h,060h,067h,0C2h,008h,031h,06Ah,0FEh,080h
0040+  372E 04006067C208316AFE80
0041+  3738 FB502965D004.db 0FBh,050h,029h,065h,0D0h,004h,004h,000h,060h,067h,0C2h,008h,031h,06Ah,07Eh,002h
0041+  373E 04006067C208316A7E02
0042+  3748 FE80FB502A65.db 0FEh,080h,0FBh,050h,02Ah,065h,0D0h,004h,004h,000h,060h,067h,0C2h,008h,031h,06Ah
0042+  374E D00404006067C208316A
0043+  3758 7E04FE80FB50.db 07Eh,004h,0FEh,080h,0FBh,050h,0CAh,000h,060h,067h,0C2h,004h,0C0h,002h,031h,06Ah
0043+  375E CA006067C204C002316A
0044+  3768 7E36FE80FB50.db 07Eh,036h,0FEh,080h,0FBh,050h,0DEh,001h,000h,001h,030h,066h,055h,088h,07Fh,001h
0044+  376E DE010001306655887F01
0045+  3778 FB90FB1CFF80.db 0FBh,090h,0FBh,01Ch,0FFh,080h,0FBh,023h,0FBh,090h,0FBh,021h,0FFh,080h,0FBh,023h
0045+  377E FB23FB90FB21FF80FB23
0046+  3788 CE19FB90FB20.db 0CEh,019h,0FBh,090h,0FBh,020h,060h,060h,03Ch,060h,020h,066h,0D0h,002h,0FBh,079h
0046+  378E 60603C602066D002FB79
0047+  3798 5866C0065589.db 058h,066h,0C0h,006h,055h,089h,028h,066h,0D0h,004h,004h,000h,060h,067h,0C2h,008h
0047+  379E 2866D00404006067C208
0048+  37A8 316A7E01FE80.db 031h,06Ah,07Eh,001h,0FEh,080h,0FBh,050h,029h,066h,0D0h,004h,004h,000h,060h,067h
0048+  37AE FB502966D00404006067
0049+  37B8 C208316A7E03.db 0C2h,008h,031h,06Ah,07Eh,003h,0FEh,080h,0FBh,050h,02Ah,066h,0D0h,004h,004h,000h
0049+  37BE FE80FB502A66D0040400
0050+  37C8 6067C208316A.db 060h,067h,0C2h,008h,031h,06Ah,07Eh,005h,0FEh,080h,0FBh,050h,0CAh,000h,060h,067h
0050+  37CE 7E05FE80FB50CA006067
0051+  37D8 C204C002316A.db 0C2h,004h,0C0h,002h,031h,06Ah,07Eh,037h,0FEh,080h,0FBh,050h,0FFh,080h,0FAh,03Ch
0051+  37DE 7E37FE80FB50FF80FA3C
0052+  37E8 CF807D802C80.db 0CFh,080h,07Dh,080h,02Ch,080h,068h,080h,020h,080h,04Eh,06Dh,0D0h,002h,0FBh,097h
0052+  37EE 688020804E6DD002FB97
0053+  37F8 588040674880.db 058h,080h,040h,067h,048h,080h,0CEh,015h,068h,0EAh,0FBh,099h,0FBh,050h,0CEh,026h
0053+  37FE CE1568EAFB99FB50CE26
0054+  3808 7961776CC72B.db 079h,061h,077h,06Ch,0C7h,02Bh,077h,069h,037h,06Ch,051h,061h,0CEh,000h,0CEh,026h
0054+  380E 7769376C5161CE00CE26
0055+  3818 7961776C558E.db 079h,061h,077h,06Ch,055h,08Eh,037h,0AFh,077h,001h,037h,069h,0FBh,090h,0FBh,074h
0055+  381E 37AF77013769FB90FB74
0056+  3828 C72CD6000600.db 0C7h,02Ch,0D6h,000h,006h,000h,077h,064h,077h,069h,037h,06Ch,051h,061h,0CEh,000h
0056+  382E 77647769376C5161CE00
0057+  3838 CE2600000001.db 0CEh,026h,000h,000h,000h,001h,000h,002h,000h,004h,000h,003h,000h,005h,000h,006h
0057+  383E 00020004000300050006
0058+  3848 000700000000.db 000h,007h,000h,000h,000h,000h,000h,000h,000h,000h,000h,000h,000h,080h,000h,0A0h
0058+  384E 000000000000008000A0
0059+  3858 00A800AA00AA.db 000h,0A8h,000h,0AAh,000h,0AAh,000h,0AAh,000h,000h,000h,000h,000h,000h,000h,000h
0059+  385E 00AA0000000000000000
0060+  3868 000000400050.db 000h,000h,000h,040h,000h,050h,000h,054h,000h,055h,000h,055h,000h,055h,000h,000h
0060+  386E 00540055005500550000
0061+  3878 040004000000.db 004h,000h,004h,000h,000h,000h,004h,000h,000h,000h,000h,000h,004h,000h,004h,000h
0061+  387E 04000000000004000400
0062+  3888 000000000400.db 000h,000h,000h,000h,004h,000h,000h,000h,004h,000h,004h,000h,000h,000h,004h,000h
0062+  388E 00000400040000000400
0063+  3898 000000000400.db 000h,000h,000h,000h,004h,000h,000h,000h,004h,000h,004h,000h,000h,000h,000h,000h
0063+  389E 00000400040000000000
0064+  38A8 040004000000.db 004h,000h,004h,000h,000h,000h,004h,000h,000h,000h,000h,000h,004h,000h,004h,000h
0064+  38AE 04000000000004000400
0065+  38B8 000000000400.db 000h,000h,000h,000h,004h,000h,000h,000h,004h,000h,004h,000h,000h,000h,000h,000h
0065+  38BE 00000400040000000000
0066+  38C8 040004000000.db 004h,000h,004h,000h,000h,000h,004h,000h,000h,000h,000h,000h,004h,000h,000h,000h
0066+  38CE 04000000000004000000
0067+  38D8 040004000000.db 004h,000h,004h,000h,000h,000h,004h,000h,000h,000h,000h,000h,004h,000h,004h,000h
0067+  38DE 04000000000004000400
0068+  38E8 000000000400.db 000h,000h,000h,000h,004h,000h,000h,000h,004h,000h,004h,000h,000h,000h,004h,000h
0068+  38EE 00000400040000000400
0069+  38F8 000000000400.db 000h,000h,000h,000h,004h,000h,000h,000h,004h,000h,004h,000h,000h,000h,000h,000h
0069+  38FE 00000400040000000000
0070+  3908 040004000000.db 004h,000h,004h,000h,000h,000h,004h,000h,000h,000h,000h,000h,004h,000h,000h,000h
0070+  390E 04000000000004000000
0071+  3918 040004000000.db 004h,000h,004h,000h,000h,000h,004h,000h,000h,000h,000h,000h,004h,000h,004h,000h
0071+  391E 04000000000004000400
0072+  3928 000000000400.db 000h,000h,000h,000h,004h,000h,000h,000h,004h,000h,004h,000h,000h,000h,000h,000h
0072+  392E 00000400040000000000
0073+  3938 040004000000.db 004h,000h,004h,000h,000h,000h,004h,000h,000h,000h,000h,000h,004h,000h,004h,000h
0073+  393E 04000000000004000400
0074+  3948 000000000400.db 000h,000h,000h,000h,004h,000h,000h,000h,004h,000h,004h,000h,000h,000h,004h,000h
0074+  394E 00000400040000000400
0075+  3958 000000000400.db 000h,000h,000h,000h,004h,000h,000h,000h,004h,000h,004h,000h,000h,000h,000h,000h
0075+  395E 00000400040000000000
0076+  3968 040004000000.db 004h,000h,004h,000h,000h,000h,004h,000h,000h,000h,000h,000h,004h,000h,000h,000h
0076+  396E 04000000000004000000
0077+  3978 0000000018F9.db 000h,000h,000h,000h,018h,0F9h,018h,0F9h,030h,0FBh,030h,0FBh,047h,01Ch,047h,01Ch
0077+  397E 18F930FB30FB471C471C
0078+  3988 5A825A826A6D.db 05Ah,082h,05Ah,082h,06Ah,06Dh,06Ah,06Dh,076h,041h,076h,041h,07Dh,089h,07Dh,089h
0078+  398E 6A6D764176417D897D89
0079+  3998 7FFF7FFF7D89.db 07Fh,0FFh,07Fh,0FFh,07Dh,089h,07Dh,089h,076h,041h,076h,041h,06Ah,06Dh,06Ah,06Dh
0079+  399E 7D89764176416A6D6A6D
0080+  39A8 5A825A82471C.db 05Ah,082h,05Ah,082h,047h,01Ch,047h,01Ch,030h,0FBh,030h,0FBh,018h,0F9h,018h,0F9h
0080+  39AE 471C30FB30FB18F918F9
0081+  39B8 00000000E707.db 000h,000h,000h,000h,0E7h,007h,0E7h,007h,0CFh,005h,0CFh,005h,0B8h,0E4h,0B8h,0E4h
0081+  39BE E707CF05CF05B8E4B8E4
0082+  39C8 A57EA57E9593.db 0A5h,07Eh,0A5h,07Eh,095h,093h,095h,093h,089h,0BFh,089h,0BFh,082h,077h,082h,077h
0082+  39CE 959389BF89BF82778277
0083+  39D8 800180018277.db 080h,001h,080h,001h,082h,077h,082h,077h,089h,0BFh,089h,0BFh,095h,093h,095h,093h
0083+  39DE 827789BF89BF95939593
0084+  39E8 A57EA57EB8E4.db 0A5h,07Eh,0A5h,07Eh,0B8h,0E4h,0B8h,0E4h,0CFh,005h,0CFh,005h,0E7h,007h,0E7h,007h
0084+  39EE B8E4CF05CF05E707E707
0085+  39F8 00 00       .db 000h,000h
0086+  39FA             
0087+  39FA 00          BEEPBOTHEND:		.db	0
0088+  39FB             
0089+  39FB             ;------------------- end of file -----------------------
0090+  39FB             
0802   39FB             #include "beepleft.asm"
0001+  39FB             ;--------------------------------------------------
0002+  39FB             ;  File: BEEPLEFT.asm
0003+  39FB             ;  Date: Sun Jan 02 16:58:36 2000
0004+  39FB             ;
0005+  39FB             ;  Produced by bin2asm.exe
0006+  39FB             ;--------------------------------------------------
0007+  39FB             
0008+  39FB             BEEPLEFT:
0009+  39FB             
0010+  39FB FF80FA0EFF80.db 0FFh,080h,0FAh,00Eh,0FFh,080h,0FBh,060h,0FFh,080h,0FAh,00Eh,0FFh,080h,0FAh,00Eh
0010+  3A01 FB60FF80FA0EFF80FA0E
0011+  3A0B FF80FA0EFF80.db 0FFh,080h,0FAh,00Eh,0FFh,080h,0FBh,068h,0FFh,080h,0FBh,068h,0C8h,000h,0CEh,00Eh
0011+  3A11 FB68FF80FB68C800CE0E
0012+  3A1B CE20CE37CA80.db 0CEh,020h,0CEh,037h,0CAh,080h,060h,005h,0CEh,03Eh,0CEh,003h,0CEh,007h,0CEh,008h
0012+  3A21 6005CE3ECE03CE07CE08
0013+  3A2B D00100005588.db 0D0h,001h,000h,000h,055h,088h,0D0h,000h,006h,000h,0CBh,0FFh,060h,0A0h,0CBh,0FFh
0013+  3A31 D0000600CBFF60A0CBFF
0014+  3A3B 60A0D0014002.db 060h,0A0h,0D0h,001h,040h,002h,060h,075h,0CAh,07Fh,060h,06Dh,0D0h,001h,080h,000h
0014+  3A41 6075CA7F606DD0018000
0015+  3A4B 606ED0017530.db 060h,06Eh,0D0h,001h,075h,030h,060h,06Fh,0D0h,001h,019h,039h,060h,070h,0CAh,000h
0015+  3A51 606FD00119396070CA00
0016+  3A5B 6068D7000680.db 060h,068h,0D7h,000h,006h,080h,0D0h,001h,006h,0C0h,060h,06Ah,0C0h,02Ch,070h,069h
0016+  3A61 D00106C0606AC02C7069
0017+  3A6B D6000600CA25.db 0D6h,000h,006h,000h,0CAh,025h,060h,004h,020h,064h,0F6h,080h,0FAh,03Ch,0CAh,000h
0017+  3A71 60042064F680FA3CCA00
0018+  3A7B 6064C004D500.db 060h,064h,0C0h,004h,0D5h,000h,006h,000h,031h,06Ah,0C2h,00Ah,0C4h,003h,055h,089h
0018+  3A81 0600316AC20AC4035589
0019+  3A8B C3072080CE35.db 0C3h,007h,020h,080h,0CEh,035h,060h,0E0h,020h,060h,0CEh,034h,060h,060h,020h,080h
0019+  3A91 60E02060CE3460602080
0020+  3A9B CE3560EB2060.db 0CEh,035h,060h,0EBh,020h,060h,0CEh,034h,060h,060h,0FBh,099h,0FAh,049h,055h,08Dh
0020+  3AA1 CE346060FB99FA49558D
0021+  3AAB 60A97F40558A.db 060h,0A9h,07Fh,040h,055h,08Ah,0FBh,099h,0FAh,048h,0C2h,00Ah,07Eh,001h,055h,08Ch
0021+  3AB1 FB99FA48C20A7E01558C
0022+  3ABB FB99FA48CE1F.db 0FBh,099h,0FAh,048h,0CEh,01Fh,0CAh,001h,010h,068h,060h,068h,0D0h,000h,006h,0C0h
0022+  3AC1 CA0110686068D00006C0
0023+  3ACB F680FA6CD000.db 0F6h,080h,0FAh,06Ch,0D0h,000h,006h,080h,070h,06Ah,031h,06Ah,055h,089h,0CBh,03Fh
0023+  3AD1 0680706A316A5589CB3F
0024+  3ADB FCA0FC18316A.db 0FCh,0A0h,0FCh,018h,031h,06Ah,0D3h,000h,007h,0C0h,0C5h,03Fh,055h,089h,0F7h,080h
0024+  3AE1 D30007C0C53F5589F780
0025+  3AEB FA7920ABCE1B.db 0FAh,079h,020h,0ABh,0CEh,01Bh,060h,0ADh,0FBh,099h,0FAh,079h,0F7h,080h,0FAh,084h
0025+  3AF1 60ADFB99FA79F780FA84
0026+  3AFB D00144006076.db 0D0h,001h,044h,000h,060h,076h,060h,077h,0C0h,002h,0D1h,000h,007h,0C0h,0D0h,001h
0026+  3B01 6077C002D10007C0D001
0027+  3B0B 01FFCB1F4DE0.db 001h,0FFh,0CBh,01Fh,04Dh,0E0h,060h,065h,040h,065h,0C1h,009h,07Fh,001h,0CEh,034h
0027+  3B11 60654065C1097F01CE34
0028+  3B1B 5F80FA8E7165.db 05Fh,080h,0FAh,08Eh,071h,065h,0C0h,002h,0D1h,000h,007h,0C1h,0D0h,001h,001h,0FFh
0028+  3B21 C002D10007C1D00101FF
0029+  3B2B CB1F4DE06066.db 0CBh,01Fh,04Dh,0E0h,060h,066h,040h,066h,0C1h,009h,055h,089h,0DFh,005h,003h,0FFh
0029+  3B31 4066C1095589DF0503FF
0030+  3B3B 7F01CE345F80.db 07Fh,001h,0CEh,034h,05Fh,080h,0FAh,0A0h,071h,066h,02Bh,065h,0D0h,005h,004h,000h
0030+  3B41 FAA071662B65D0050400
0031+  3B4B 10765F80FAB0.db 010h,076h,05Fh,080h,0FAh,0B0h,02Bh,065h,0D0h,005h,004h,000h,0FFh,080h,0FAh,0B5h
0031+  3B51 2B65D0050400FF80FAB5
0032+  3B5B 2076CD0F5E80.db 020h,076h,0CDh,00Fh,05Eh,080h,0FAh,0B5h,0CAh,000h,060h,076h,02Bh,066h,0D0h,005h
0032+  3B61 FAB5CA0060762B66D005
0033+  3B6B 040010775F80.db 004h,000h,010h,077h,05Fh,080h,0FAh,0C1h,02Bh,066h,0D0h,005h,004h,000h,0FFh,080h
0033+  3B71 FAC12B66D0050400FF80
0034+  3B7B FAC62077CD0F.db 0FAh,0C6h,020h,077h,0CDh,00Fh,05Eh,080h,0FAh,0C6h,0CAh,000h,060h,077h,025h,076h
0034+  3B81 5E80FAC6CA0060772576
0035+  3B8B 68782078D002.db 068h,078h,020h,078h,0D0h,002h,0FBh,081h,058h,079h,025h,077h,068h,078h,020h,078h
0035+  3B91 FB815879257768782078
0036+  3B9B D002FB8C587A.db 0D0h,002h,0FBh,08Ch,058h,07Ah,0D0h,000h,0FFh,0FFh,055h,088h,020h,079h,04Dh,07Ah
0036+  3BA1 D000FFFF558820794D7A
0037+  3BAB 6080DE010001.db 060h,080h,0DEh,001h,000h,001h,030h,065h,055h,088h,07Fh,001h,0FBh,090h,0FAh,0E2h
0037+  3BB1 306555887F01FB90FAE2
0038+  3BBB FF80FAE9FB90.db 0FFh,080h,0FAh,0E9h,0FBh,090h,0FAh,0E7h,0FFh,080h,0FAh,0E9h,0CEh,019h,0FBh,090h
0038+  3BC1 FAE7FF80FAE9CE19FB90
0039+  3BCB FAE660603C60.db 0FAh,0E6h,060h,060h,03Ch,060h,020h,065h,0D0h,002h,0FBh,079h,058h,065h,0C0h,006h
0039+  3BD1 2065D002FB795865C006
0040+  3BDB 55892865D004.db 055h,089h,028h,065h,0D0h,004h,004h,000h,060h,067h,0C2h,008h,031h,06Ah,0FEh,080h
0040+  3BE1 04006067C208316AFE80
0041+  3BEB FB502965D004.db 0FBh,050h,029h,065h,0D0h,004h,004h,000h,060h,067h,0C2h,008h,031h,06Ah,07Eh,002h
0041+  3BF1 04006067C208316A7E02
0042+  3BFB FE80FB502A65.db 0FEh,080h,0FBh,050h,02Ah,065h,0D0h,004h,004h,000h,060h,067h,0C2h,008h,031h,06Ah
0042+  3C01 D00404006067C208316A
0043+  3C0B 7E04FE80FB50.db 07Eh,004h,0FEh,080h,0FBh,050h,0CAh,000h,060h,067h,0C2h,004h,0C0h,002h,031h,06Ah
0043+  3C11 CA006067C204C002316A
0044+  3C1B 7E36FE80FB50.db 07Eh,036h,0FEh,080h,0FBh,050h,0DEh,001h,000h,001h,030h,066h,055h,088h,07Fh,001h
0044+  3C21 DE010001306655887F01
0045+  3C2B FB90FB1CFF80.db 0FBh,090h,0FBh,01Ch,0FFh,080h,0FBh,023h,0FBh,090h,0FBh,021h,0FFh,080h,0FBh,023h
0045+  3C31 FB23FB90FB21FF80FB23
0046+  3C3B CE19FB90FB20.db 0CEh,019h,0FBh,090h,0FBh,020h,060h,060h,03Ch,060h,020h,066h,0D0h,002h,0FBh,079h
0046+  3C41 60603C602066D002FB79
0047+  3C4B 5866C0065589.db 058h,066h,0C0h,006h,055h,089h,028h,066h,0D0h,004h,004h,000h,060h,067h,0C2h,008h
0047+  3C51 2866D00404006067C208
0048+  3C5B 316A7E01FE80.db 031h,06Ah,07Eh,001h,0FEh,080h,0FBh,050h,029h,066h,0D0h,004h,004h,000h,060h,067h
0048+  3C61 FB502966D00404006067
0049+  3C6B C208316A7E03.db 0C2h,008h,031h,06Ah,07Eh,003h,0FEh,080h,0FBh,050h,02Ah,066h,0D0h,004h,004h,000h
0049+  3C71 FE80FB502A66D0040400
0050+  3C7B 6067C208316A.db 060h,067h,0C2h,008h,031h,06Ah,07Eh,005h,0FEh,080h,0FBh,050h,0CAh,000h,060h,067h
0050+  3C81 7E05FE80FB50CA006067
0051+  3C8B C204C002316A.db 0C2h,004h,0C0h,002h,031h,06Ah,07Eh,037h,0FEh,080h,0FBh,050h,0FFh,080h,0FAh,03Ch
0051+  3C91 7E37FE80FB50FF80FA3C
0052+  3C9B CF807D802C80.db 0CFh,080h,07Dh,080h,02Ch,080h,068h,080h,020h,080h,04Eh,06Dh,0D0h,002h,0FBh,097h
0052+  3CA1 688020804E6DD002FB97
0053+  3CAB 588040674880.db 058h,080h,040h,067h,048h,080h,0CEh,015h,068h,0EAh,0FBh,099h,0FBh,050h,0CEh,026h
0053+  3CB1 CE1568EAFB99FB50CE26
0054+  3CBB 7961776CC72B.db 079h,061h,077h,06Ch,0C7h,02Bh,077h,069h,037h,06Ch,051h,061h,0CEh,000h,0CEh,026h
0054+  3CC1 7769376C5161CE00CE26
0055+  3CCB 7961776C558E.db 079h,061h,077h,06Ch,055h,08Eh,037h,0AFh,077h,001h,037h,069h,0FBh,090h,0FBh,074h
0055+  3CD1 37AF77013769FB90FB74
0056+  3CDB C72CD6000600.db 0C7h,02Ch,0D6h,000h,006h,000h,077h,064h,077h,069h,037h,06Ch,051h,061h,0CEh,000h
0056+  3CE1 77647769376C5161CE00
0057+  3CEB CE2600000001.db 0CEh,026h,000h,000h,000h,001h,000h,002h,000h,004h,000h,003h,000h,005h,000h,006h
0057+  3CF1 00020004000300050006
0058+  3CFB 000700000000.db 000h,007h,000h,000h,000h,000h,000h,000h,000h,000h,000h,000h,000h,080h,000h,0A0h
0058+  3D01 000000000000008000A0
0059+  3D0B 00A800AA00AA.db 000h,0A8h,000h,0AAh,000h,0AAh,000h,0AAh,000h,000h,000h,000h,000h,000h,000h,000h
0059+  3D11 00AA0000000000000000
0060+  3D1B 000000400050.db 000h,000h,000h,040h,000h,050h,000h,054h,000h,055h,000h,055h,000h,055h,000h,000h
0060+  3D21 00540055005500550000
0061+  3D2B 040004000000.db 004h,000h,004h,000h,000h,000h,004h,000h,000h,000h,000h,000h,004h,000h,004h,000h
0061+  3D31 04000000000004000400
0062+  3D3B 000000000400.db 000h,000h,000h,000h,004h,000h,000h,000h,004h,000h,004h,000h,000h,000h,004h,000h
0062+  3D41 00000400040000000400
0063+  3D4B 000000000400.db 000h,000h,000h,000h,004h,000h,000h,000h,004h,000h,004h,000h,000h,000h,000h,000h
0063+  3D51 00000400040000000000
0064+  3D5B 040004000000.db 004h,000h,004h,000h,000h,000h,004h,000h,000h,000h,000h,000h,004h,000h,004h,000h
0064+  3D61 04000000000004000400
0065+  3D6B 000000000400.db 000h,000h,000h,000h,004h,000h,000h,000h,004h,000h,004h,000h,000h,000h,000h,000h
0065+  3D71 00000400040000000000
0066+  3D7B 040004000000.db 004h,000h,004h,000h,000h,000h,004h,000h,000h,000h,000h,000h,004h,000h,000h,000h
0066+  3D81 04000000000004000000
0067+  3D8B 040004000000.db 004h,000h,004h,000h,000h,000h,004h,000h,000h,000h,000h,000h,004h,000h,004h,000h
0067+  3D91 04000000000004000400
0068+  3D9B 000000000400.db 000h,000h,000h,000h,004h,000h,000h,000h,004h,000h,004h,000h,000h,000h,004h,000h
0068+  3DA1 00000400040000000400
0069+  3DAB 000000000400.db 000h,000h,000h,000h,004h,000h,000h,000h,004h,000h,004h,000h,000h,000h,000h,000h
0069+  3DB1 00000400040000000000
0070+  3DBB 040004000000.db 004h,000h,004h,000h,000h,000h,004h,000h,000h,000h,000h,000h,004h,000h,000h,000h
0070+  3DC1 04000000000004000000
0071+  3DCB 040004000000.db 004h,000h,004h,000h,000h,000h,004h,000h,000h,000h,000h,000h,004h,000h,004h,000h
0071+  3DD1 04000000000004000400
0072+  3DDB 000000000400.db 000h,000h,000h,000h,004h,000h,000h,000h,004h,000h,004h,000h,000h,000h,000h,000h
0072+  3DE1 00000400040000000000
0073+  3DEB 040004000000.db 004h,000h,004h,000h,000h,000h,004h,000h,000h,000h,000h,000h,004h,000h,004h,000h
0073+  3DF1 04000000000004000400
0074+  3DFB 000000000400.db 000h,000h,000h,000h,004h,000h,000h,000h,004h,000h,004h,000h,000h,000h,004h,000h
0074+  3E01 00000400040000000400
0075+  3E0B 000000000400.db 000h,000h,000h,000h,004h,000h,000h,000h,004h,000h,004h,000h,000h,000h,000h,000h
0075+  3E11 00000400040000000000
0076+  3E1B 040004000000.db 004h,000h,004h,000h,000h,000h,004h,000h,000h,000h,000h,000h,004h,000h,000h,000h
0076+  3E21 04000000000004000000
0077+  3E2B 0000000018F9.db 000h,000h,000h,000h,018h,0F9h,000h,000h,030h,0FBh,000h,000h,047h,01Ch,000h,000h
0077+  3E31 000030FB0000471C0000
0078+  3E3B 5A8200006A6D.db 05Ah,082h,000h,000h,06Ah,06Dh,000h,000h,076h,041h,000h,000h,07Dh,089h,000h,000h
0078+  3E41 0000764100007D890000
0079+  3E4B 7FFF00007D89.db 07Fh,0FFh,000h,000h,07Dh,089h,000h,000h,076h,041h,000h,000h,06Ah,06Dh,000h,000h
0079+  3E51 0000764100006A6D0000
0080+  3E5B 5A820000471C.db 05Ah,082h,000h,000h,047h,01Ch,000h,000h,030h,0FBh,000h,000h,018h,0F9h,000h,000h
0080+  3E61 000030FB000018F90000
0081+  3E6B 00000000E707.db 000h,000h,000h,000h,0E7h,007h,000h,000h,0CFh,005h,000h,000h,0B8h,0E4h,000h,000h
0081+  3E71 0000CF050000B8E40000
0082+  3E7B A57E00009593.db 0A5h,07Eh,000h,000h,095h,093h,000h,000h,089h,0BFh,000h,000h,082h,077h,000h,000h
0082+  3E81 000089BF000082770000
0083+  3E8B 800100008277.db 080h,001h,000h,000h,082h,077h,000h,000h,089h,0BFh,000h,000h,095h,093h,000h,000h
0083+  3E91 000089BF000095930000
0084+  3E9B A57E0000B8E4.db 0A5h,07Eh,000h,000h,0B8h,0E4h,000h,000h,0CFh,005h,000h,000h,0E7h,007h,000h,000h
0084+  3EA1 0000CF050000E7070000
0085+  3EAB 00 00       .db 000h,000h
0086+  3EAD             
0087+  3EAD 00          BEEPLEFTEND:		.db	0
0088+  3EAE             
0089+  3EAE             ;------------------- end of file -----------------------
0090+  3EAE             
0803   3EAE             #include "beeprght.asm"
0001+  3EAE             ;--------------------------------------------------
0002+  3EAE             ;  File: BEEPRGHT.asm
0003+  3EAE             ;  Date: Sun Jan 02 16:58:36 2000
0004+  3EAE             ;
0005+  3EAE             ;  Produced by bin2asm.exe
0006+  3EAE             ;--------------------------------------------------
0007+  3EAE             
0008+  3EAE             BEEPRGHT:
0009+  3EAE             
0010+  3EAE FF80FA0EFF80.db 0FFh,080h,0FAh,00Eh,0FFh,080h,0FBh,060h,0FFh,080h,0FAh,00Eh,0FFh,080h,0FAh,00Eh
0010+  3EB4 FB60FF80FA0EFF80FA0E
0011+  3EBE FF80FA0EFF80.db 0FFh,080h,0FAh,00Eh,0FFh,080h,0FBh,068h,0FFh,080h,0FBh,068h,0C8h,000h,0CEh,00Eh
0011+  3EC4 FB68FF80FB68C800CE0E
0012+  3ECE CE20CE37CA80.db 0CEh,020h,0CEh,037h,0CAh,080h,060h,005h,0CEh,03Eh,0CEh,003h,0CEh,007h,0CEh,008h
0012+  3ED4 6005CE3ECE03CE07CE08
0013+  3EDE D00100005588.db 0D0h,001h,000h,000h,055h,088h,0D0h,000h,006h,000h,0CBh,0FFh,060h,0A0h,0CBh,0FFh
0013+  3EE4 D0000600CBFF60A0CBFF
0014+  3EEE 60A0D0014002.db 060h,0A0h,0D0h,001h,040h,002h,060h,075h,0CAh,07Fh,060h,06Dh,0D0h,001h,080h,000h
0014+  3EF4 6075CA7F606DD0018000
0015+  3EFE 606ED0017530.db 060h,06Eh,0D0h,001h,075h,030h,060h,06Fh,0D0h,001h,019h,039h,060h,070h,0CAh,000h
0015+  3F04 606FD00119396070CA00
0016+  3F0E 6068D7000680.db 060h,068h,0D7h,000h,006h,080h,0D0h,001h,006h,0C0h,060h,06Ah,0C0h,02Ch,070h,069h
0016+  3F14 D00106C0606AC02C7069
0017+  3F1E D6000600CA25.db 0D6h,000h,006h,000h,0CAh,025h,060h,004h,020h,064h,0F6h,080h,0FAh,03Ch,0CAh,000h
0017+  3F24 60042064F680FA3CCA00
0018+  3F2E 6064C004D500.db 060h,064h,0C0h,004h,0D5h,000h,006h,000h,031h,06Ah,0C2h,00Ah,0C4h,003h,055h,089h
0018+  3F34 0600316AC20AC4035589
0019+  3F3E C3072080CE35.db 0C3h,007h,020h,080h,0CEh,035h,060h,0E0h,020h,060h,0CEh,034h,060h,060h,020h,080h
0019+  3F44 60E02060CE3460602080
0020+  3F4E CE3560EB2060.db 0CEh,035h,060h,0EBh,020h,060h,0CEh,034h,060h,060h,0FBh,099h,0FAh,049h,055h,08Dh
0020+  3F54 CE346060FB99FA49558D
0021+  3F5E 60A97F40558A.db 060h,0A9h,07Fh,040h,055h,08Ah,0FBh,099h,0FAh,048h,0C2h,00Ah,07Eh,001h,055h,08Ch
0021+  3F64 FB99FA48C20A7E01558C
0022+  3F6E FB99FA48CE1F.db 0FBh,099h,0FAh,048h,0CEh,01Fh,0CAh,001h,010h,068h,060h,068h,0D0h,000h,006h,0C0h
0022+  3F74 CA0110686068D00006C0
0023+  3F7E F680FA6CD000.db 0F6h,080h,0FAh,06Ch,0D0h,000h,006h,080h,070h,06Ah,031h,06Ah,055h,089h,0CBh,03Fh
0023+  3F84 0680706A316A5589CB3F
0024+  3F8E FCA0FC18316A.db 0FCh,0A0h,0FCh,018h,031h,06Ah,0D3h,000h,007h,0C0h,0C5h,03Fh,055h,089h,0F7h,080h
0024+  3F94 D30007C0C53F5589F780
0025+  3F9E FA7920ABCE1B.db 0FAh,079h,020h,0ABh,0CEh,01Bh,060h,0ADh,0FBh,099h,0FAh,079h,0F7h,080h,0FAh,084h
0025+  3FA4 60ADFB99FA79F780FA84
0026+  3FAE D00144006076.db 0D0h,001h,044h,000h,060h,076h,060h,077h,0C0h,002h,0D1h,000h,007h,0C0h,0D0h,001h
0026+  3FB4 6077C002D10007C0D001
0027+  3FBE 01FFCB1F4DE0.db 001h,0FFh,0CBh,01Fh,04Dh,0E0h,060h,065h,040h,065h,0C1h,009h,07Fh,001h,0CEh,034h
0027+  3FC4 60654065C1097F01CE34
0028+  3FCE 5F80FA8E7165.db 05Fh,080h,0FAh,08Eh,071h,065h,0C0h,002h,0D1h,000h,007h,0C1h,0D0h,001h,001h,0FFh
0028+  3FD4 C002D10007C1D00101FF
0029+  3FDE CB1F4DE06066.db 0CBh,01Fh,04Dh,0E0h,060h,066h,040h,066h,0C1h,009h,055h,089h,0DFh,005h,003h,0FFh
0029+  3FE4 4066C1095589DF0503FF
0030+  3FEE 7F01CE345F80.db 07Fh,001h,0CEh,034h,05Fh,080h,0FAh,0A0h,071h,066h,02Bh,065h,0D0h,005h,004h,000h
0030+  3FF4 FAA071662B65D0050400
0031+  3FFE 10765F80FAB0.db 010h,076h,05Fh,080h,0FAh,0B0h,02Bh,065h,0D0h,005h,004h,000h,0FFh,080h,0FAh,0B5h
0031+  4004 2B65D0050400FF80FAB5
0032+  400E 2076CD0F5E80.db 020h,076h,0CDh,00Fh,05Eh,080h,0FAh,0B5h,0CAh,000h,060h,076h,02Bh,066h,0D0h,005h
0032+  4014 FAB5CA0060762B66D005
0033+  401E 040010775F80.db 004h,000h,010h,077h,05Fh,080h,0FAh,0C1h,02Bh,066h,0D0h,005h,004h,000h,0FFh,080h
0033+  4024 FAC12B66D0050400FF80
0034+  402E FAC62077CD0F.db 0FAh,0C6h,020h,077h,0CDh,00Fh,05Eh,080h,0FAh,0C6h,0CAh,000h,060h,077h,025h,076h
0034+  4034 5E80FAC6CA0060772576
0035+  403E 68782078D002.db 068h,078h,020h,078h,0D0h,002h,0FBh,081h,058h,079h,025h,077h,068h,078h,020h,078h
0035+  4044 FB815879257768782078
0036+  404E D002FB8C587A.db 0D0h,002h,0FBh,08Ch,058h,07Ah,0D0h,000h,0FFh,0FFh,055h,088h,020h,079h,04Dh,07Ah
0036+  4054 D000FFFF558820794D7A
0037+  405E 6080DE010001.db 060h,080h,0DEh,001h,000h,001h,030h,065h,055h,088h,07Fh,001h,0FBh,090h,0FAh,0E2h
0037+  4064 306555887F01FB90FAE2
0038+  406E FF80FAE9FB90.db 0FFh,080h,0FAh,0E9h,0FBh,090h,0FAh,0E7h,0FFh,080h,0FAh,0E9h,0CEh,019h,0FBh,090h
0038+  4074 FAE7FF80FAE9CE19FB90
0039+  407E FAE660603C60.db 0FAh,0E6h,060h,060h,03Ch,060h,020h,065h,0D0h,002h,0FBh,079h,058h,065h,0C0h,006h
0039+  4084 2065D002FB795865C006
0040+  408E 55892865D004.db 055h,089h,028h,065h,0D0h,004h,004h,000h,060h,067h,0C2h,008h,031h,06Ah,0FEh,080h
0040+  4094 04006067C208316AFE80
0041+  409E FB502965D004.db 0FBh,050h,029h,065h,0D0h,004h,004h,000h,060h,067h,0C2h,008h,031h,06Ah,07Eh,002h
0041+  40A4 04006067C208316A7E02
0042+  40AE FE80FB502A65.db 0FEh,080h,0FBh,050h,02Ah,065h,0D0h,004h,004h,000h,060h,067h,0C2h,008h,031h,06Ah
0042+  40B4 D00404006067C208316A
0043+  40BE 7E04FE80FB50.db 07Eh,004h,0FEh,080h,0FBh,050h,0CAh,000h,060h,067h,0C2h,004h,0C0h,002h,031h,06Ah
0043+  40C4 CA006067C204C002316A
0044+  40CE 7E36FE80FB50.db 07Eh,036h,0FEh,080h,0FBh,050h,0DEh,001h,000h,001h,030h,066h,055h,088h,07Fh,001h
0044+  40D4 DE010001306655887F01
0045+  40DE FB90FB1CFF80.db 0FBh,090h,0FBh,01Ch,0FFh,080h,0FBh,023h,0FBh,090h,0FBh,021h,0FFh,080h,0FBh,023h
0045+  40E4 FB23FB90FB21FF80FB23
0046+  40EE CE19FB90FB20.db 0CEh,019h,0FBh,090h,0FBh,020h,060h,060h,03Ch,060h,020h,066h,0D0h,002h,0FBh,079h
0046+  40F4 60603C602066D002FB79
0047+  40FE 5866C0065589.db 058h,066h,0C0h,006h,055h,089h,028h,066h,0D0h,004h,004h,000h,060h,067h,0C2h,008h
0047+  4104 2866D00404006067C208
0048+  410E 316A7E01FE80.db 031h,06Ah,07Eh,001h,0FEh,080h,0FBh,050h,029h,066h,0D0h,004h,004h,000h,060h,067h
0048+  4114 FB502966D00404006067
0049+  411E C208316A7E03.db 0C2h,008h,031h,06Ah,07Eh,003h,0FEh,080h,0FBh,050h,02Ah,066h,0D0h,004h,004h,000h
0049+  4124 FE80FB502A66D0040400
0050+  412E 6067C208316A.db 060h,067h,0C2h,008h,031h,06Ah,07Eh,005h,0FEh,080h,0FBh,050h,0CAh,000h,060h,067h
0050+  4134 7E05FE80FB50CA006067
0051+  413E C204C002316A.db 0C2h,004h,0C0h,002h,031h,06Ah,07Eh,037h,0FEh,080h,0FBh,050h,0FFh,080h,0FAh,03Ch
0051+  4144 7E37FE80FB50FF80FA3C
0052+  414E CF807D802C80.db 0CFh,080h,07Dh,080h,02Ch,080h,068h,080h,020h,080h,04Eh,06Dh,0D0h,002h,0FBh,097h
0052+  4154 688020804E6DD002FB97
0053+  415E 588040674880.db 058h,080h,040h,067h,048h,080h,0CEh,015h,068h,0EAh,0FBh,099h,0FBh,050h,0CEh,026h
0053+  4164 CE1568EAFB99FB50CE26
0054+  416E 7961776CC72B.db 079h,061h,077h,06Ch,0C7h,02Bh,077h,069h,037h,06Ch,051h,061h,0CEh,000h,0CEh,026h
0054+  4174 7769376C5161CE00CE26
0055+  417E 7961776C558E.db 079h,061h,077h,06Ch,055h,08Eh,037h,0AFh,077h,001h,037h,069h,0FBh,090h,0FBh,074h
0055+  4184 37AF77013769FB90FB74
0056+  418E C72CD6000600.db 0C7h,02Ch,0D6h,000h,006h,000h,077h,064h,077h,069h,037h,06Ch,051h,061h,0CEh,000h
0056+  4194 77647769376C5161CE00
0057+  419E CE2600000001.db 0CEh,026h,000h,000h,000h,001h,000h,002h,000h,004h,000h,003h,000h,005h,000h,006h
0057+  41A4 00020004000300050006
0058+  41AE 000700000000.db 000h,007h,000h,000h,000h,000h,000h,000h,000h,000h,000h,000h,000h,080h,000h,0A0h
0058+  41B4 000000000000008000A0
0059+  41BE 00A800AA00AA.db 000h,0A8h,000h,0AAh,000h,0AAh,000h,0AAh,000h,000h,000h,000h,000h,000h,000h,000h
0059+  41C4 00AA0000000000000000
0060+  41CE 000000400050.db 000h,000h,000h,040h,000h,050h,000h,054h,000h,055h,000h,055h,000h,055h,000h,000h
0060+  41D4 00540055005500550000
0061+  41DE 040004000000.db 004h,000h,004h,000h,000h,000h,004h,000h,000h,000h,000h,000h,004h,000h,004h,000h
0061+  41E4 04000000000004000400
0062+  41EE 000000000400.db 000h,000h,000h,000h,004h,000h,000h,000h,004h,000h,004h,000h,000h,000h,004h,000h
0062+  41F4 00000400040000000400
0063+  41FE 000000000400.db 000h,000h,000h,000h,004h,000h,000h,000h,004h,000h,004h,000h,000h,000h,000h,000h
0063+  4204 00000400040000000000
0064+  420E 040004000000.db 004h,000h,004h,000h,000h,000h,004h,000h,000h,000h,000h,000h,004h,000h,004h,000h
0064+  4214 04000000000004000400
0065+  421E 000000000400.db 000h,000h,000h,000h,004h,000h,000h,000h,004h,000h,004h,000h,000h,000h,000h,000h
0065+  4224 00000400040000000000
0066+  422E 040004000000.db 004h,000h,004h,000h,000h,000h,004h,000h,000h,000h,000h,000h,004h,000h,000h,000h
0066+  4234 04000000000004000000
0067+  423E 040004000000.db 004h,000h,004h,000h,000h,000h,004h,000h,000h,000h,000h,000h,004h,000h,004h,000h
0067+  4244 04000000000004000400
0068+  424E 000000000400.db 000h,000h,000h,000h,004h,000h,000h,000h,004h,000h,004h,000h,000h,000h,004h,000h
0068+  4254 00000400040000000400
0069+  425E 000000000400.db 000h,000h,000h,000h,004h,000h,000h,000h,004h,000h,004h,000h,000h,000h,000h,000h
0069+  4264 00000400040000000000
0070+  426E 040004000000.db 004h,000h,004h,000h,000h,000h,004h,000h,000h,000h,000h,000h,004h,000h,000h,000h
0070+  4274 04000000000004000000
0071+  427E 040004000000.db 004h,000h,004h,000h,000h,000h,004h,000h,000h,000h,000h,000h,004h,000h,004h,000h
0071+  4284 04000000000004000400
0072+  428E 000000000400.db 000h,000h,000h,000h,004h,000h,000h,000h,004h,000h,004h,000h,000h,000h,000h,000h
0072+  4294 00000400040000000000
0073+  429E 040004000000.db 004h,000h,004h,000h,000h,000h,004h,000h,000h,000h,000h,000h,004h,000h,004h,000h
0073+  42A4 04000000000004000400
0074+  42AE 000000000400.db 000h,000h,000h,000h,004h,000h,000h,000h,004h,000h,004h,000h,000h,000h,004h,000h
0074+  42B4 00000400040000000400
0075+  42BE 000000000400.db 000h,000h,000h,000h,004h,000h,000h,000h,004h,000h,004h,000h,000h,000h,000h,000h
0075+  42C4 00000400040000000000
0076+  42CE 040004000000.db 004h,000h,004h,000h,000h,000h,004h,000h,000h,000h,000h,000h,004h,000h,000h,000h
0076+  42D4 04000000000004000000
0077+  42DE 000000000000.db 000h,000h,000h,000h,000h,000h,018h,0F9h,000h,000h,030h,0FBh,000h,000h,047h,01Ch
0077+  42E4 18F9000030FB0000471C
0078+  42EE 00005A820000.db 000h,000h,05Ah,082h,000h,000h,06Ah,06Dh,000h,000h,076h,041h,000h,000h,07Dh,089h
0078+  42F4 6A6D0000764100007D89
0079+  42FE 00007FFF0000.db 000h,000h,07Fh,0FFh,000h,000h,07Dh,089h,000h,000h,076h,041h,000h,000h,06Ah,06Dh
0079+  4304 7D890000764100006A6D
0080+  430E 00005A820000.db 000h,000h,05Ah,082h,000h,000h,047h,01Ch,000h,000h,030h,0FBh,000h,000h,018h,0F9h
0080+  4314 471C000030FB000018F9
0081+  431E 000000000000.db 000h,000h,000h,000h,000h,000h,0E7h,007h,000h,000h,0CFh,005h,000h,000h,0B8h,0E4h
0081+  4324 E7070000CF050000B8E4
0082+  432E 0000A57E0000.db 000h,000h,0A5h,07Eh,000h,000h,095h,093h,000h,000h,089h,0BFh,000h,000h,082h,077h
0082+  4334 9593000089BF00008277
0083+  433E 000080010000.db 000h,000h,080h,001h,000h,000h,082h,077h,000h,000h,089h,0BFh,000h,000h,095h,093h
0083+  4344 8277000089BF00009593
0084+  434E 0000A57E0000.db 000h,000h,0A5h,07Eh,000h,000h,0B8h,0E4h,000h,000h,0CFh,005h,000h,000h,0E7h,007h
0084+  4354 B8E40000CF050000E707
0085+  435E 00 00       .db 000h,000h
0086+  4360             
0087+  4360 00          BEEPRGHTEND:		.db	0
0088+  4361             
0089+  4361             ;------------------- end of file -----------------------
0090+  4361             
0804   4361             
0805   4361             		.END
0806   4361             
0807   4361             
0808   4361             ;--------------------- end of file ------------------------------
0809   4361             
tasm: Number of errors = 0
